
aor2p:     file format elf64-x86-64


Disassembly of section .init:

0000000000002000 <_init>:
    2000:	48 83 ec 08          	sub    $0x8,%rsp
    2004:	48 8b 05 b5 cf 03 00 	mov    0x3cfb5(%rip),%rax        # 3efc0 <__gmon_start__@Base>
    200b:	48 85 c0             	test   %rax,%rax
    200e:	74 02                	je     2012 <_init+0x12>
    2010:	ff d0                	call   *%rax
    2012:	48 83 c4 08          	add    $0x8,%rsp
    2016:	c3                   	ret

Disassembly of section .plt:

0000000000002020 <free@plt-0x10>:
    2020:	ff 35 ca cf 03 00    	push   0x3cfca(%rip)        # 3eff0 <_GLOBAL_OFFSET_TABLE_+0x8>
    2026:	ff 25 cc cf 03 00    	jmp    *0x3cfcc(%rip)        # 3eff8 <_GLOBAL_OFFSET_TABLE_+0x10>
    202c:	0f 1f 40 00          	nopl   0x0(%rax)

0000000000002030 <free@plt>:
    2030:	ff 25 ca cf 03 00    	jmp    *0x3cfca(%rip)        # 3f000 <free@GLIBC_2.2.5>
    2036:	68 00 00 00 00       	push   $0x0
    203b:	e9 e0 ff ff ff       	jmp    2020 <_init+0x20>

0000000000002040 <putchar@plt>:
    2040:	ff 25 c2 cf 03 00    	jmp    *0x3cfc2(%rip)        # 3f008 <putchar@GLIBC_2.2.5>
    2046:	68 01 00 00 00       	push   $0x1
    204b:	e9 d0 ff ff ff       	jmp    2020 <_init+0x20>

0000000000002050 <ldexp@plt>:
    2050:	ff 25 ba cf 03 00    	jmp    *0x3cfba(%rip)        # 3f010 <ldexp@GLIBC_2.2.5>
    2056:	68 02 00 00 00       	push   $0x2
    205b:	e9 c0 ff ff ff       	jmp    2020 <_init+0x20>

0000000000002060 <strncmp@plt>:
    2060:	ff 25 b2 cf 03 00    	jmp    *0x3cfb2(%rip)        # 3f018 <strncmp@GLIBC_2.2.5>
    2066:	68 03 00 00 00       	push   $0x3
    206b:	e9 b0 ff ff ff       	jmp    2020 <_init+0x20>

0000000000002070 <pthread_barrier_init@plt>:
    2070:	ff 25 aa cf 03 00    	jmp    *0x3cfaa(%rip)        # 3f020 <pthread_barrier_init@GLIBC_2.34>
    2076:	68 04 00 00 00       	push   $0x4
    207b:	e9 a0 ff ff ff       	jmp    2020 <_init+0x20>

0000000000002080 <__isoc99_fscanf@plt>:
    2080:	ff 25 a2 cf 03 00    	jmp    *0x3cfa2(%rip)        # 3f028 <__isoc99_fscanf@GLIBC_2.7>
    2086:	68 05 00 00 00       	push   $0x5
    208b:	e9 90 ff ff ff       	jmp    2020 <_init+0x20>

0000000000002090 <puts@plt>:
    2090:	ff 25 9a cf 03 00    	jmp    *0x3cf9a(%rip)        # 3f030 <puts@GLIBC_2.2.5>
    2096:	68 06 00 00 00       	push   $0x6
    209b:	e9 80 ff ff ff       	jmp    2020 <_init+0x20>

00000000000020a0 <ferror@plt>:
    20a0:	ff 25 92 cf 03 00    	jmp    *0x3cf92(%rip)        # 3f038 <ferror@GLIBC_2.2.5>
    20a6:	68 07 00 00 00       	push   $0x7
    20ab:	e9 70 ff ff ff       	jmp    2020 <_init+0x20>

00000000000020b0 <pthread_barrier_wait@plt>:
    20b0:	ff 25 8a cf 03 00    	jmp    *0x3cf8a(%rip)        # 3f040 <pthread_barrier_wait@GLIBC_2.34>
    20b6:	68 08 00 00 00       	push   $0x8
    20bb:	e9 60 ff ff ff       	jmp    2020 <_init+0x20>

00000000000020c0 <fread@plt>:
    20c0:	ff 25 82 cf 03 00    	jmp    *0x3cf82(%rip)        # 3f048 <fread@GLIBC_2.2.5>
    20c6:	68 09 00 00 00       	push   $0x9
    20cb:	e9 50 ff ff ff       	jmp    2020 <_init+0x20>

00000000000020d0 <clock_gettime@plt>:
    20d0:	ff 25 7a cf 03 00    	jmp    *0x3cf7a(%rip)        # 3f050 <clock_gettime@GLIBC_2.17>
    20d6:	68 0a 00 00 00       	push   $0xa
    20db:	e9 40 ff ff ff       	jmp    2020 <_init+0x20>

00000000000020e0 <pow@plt>:
    20e0:	ff 25 72 cf 03 00    	jmp    *0x3cf72(%rip)        # 3f058 <pow@GLIBC_2.29>
    20e6:	68 0b 00 00 00       	push   $0xb
    20eb:	e9 30 ff ff ff       	jmp    2020 <_init+0x20>

00000000000020f0 <fclose@plt>:
    20f0:	ff 25 6a cf 03 00    	jmp    *0x3cf6a(%rip)        # 3f060 <fclose@GLIBC_2.2.5>
    20f6:	68 0c 00 00 00       	push   $0xc
    20fb:	e9 20 ff ff ff       	jmp    2020 <_init+0x20>

0000000000002100 <strlen@plt>:
    2100:	ff 25 62 cf 03 00    	jmp    *0x3cf62(%rip)        # 3f068 <strlen@GLIBC_2.2.5>
    2106:	68 0d 00 00 00       	push   $0xd
    210b:	e9 10 ff ff ff       	jmp    2020 <_init+0x20>

0000000000002110 <strchr@plt>:
    2110:	ff 25 5a cf 03 00    	jmp    *0x3cf5a(%rip)        # 3f070 <strchr@GLIBC_2.2.5>
    2116:	68 0e 00 00 00       	push   $0xe
    211b:	e9 00 ff ff ff       	jmp    2020 <_init+0x20>

0000000000002120 <printf@plt>:
    2120:	ff 25 52 cf 03 00    	jmp    *0x3cf52(%rip)        # 3f078 <printf@GLIBC_2.2.5>
    2126:	68 0f 00 00 00       	push   $0xf
    212b:	e9 f0 fe ff ff       	jmp    2020 <_init+0x20>

0000000000002130 <pthread_barrier_destroy@plt>:
    2130:	ff 25 4a cf 03 00    	jmp    *0x3cf4a(%rip)        # 3f080 <pthread_barrier_destroy@GLIBC_2.34>
    2136:	68 10 00 00 00       	push   $0x10
    213b:	e9 e0 fe ff ff       	jmp    2020 <_init+0x20>

0000000000002140 <strrchr@plt>:
    2140:	ff 25 42 cf 03 00    	jmp    *0x3cf42(%rip)        # 3f088 <strrchr@GLIBC_2.2.5>
    2146:	68 11 00 00 00       	push   $0x11
    214b:	e9 d0 fe ff ff       	jmp    2020 <_init+0x20>

0000000000002150 <__assert_fail@plt>:
    2150:	ff 25 3a cf 03 00    	jmp    *0x3cf3a(%rip)        # 3f090 <__assert_fail@GLIBC_2.2.5>
    2156:	68 12 00 00 00       	push   $0x12
    215b:	e9 c0 fe ff ff       	jmp    2020 <_init+0x20>

0000000000002160 <memset@plt>:
    2160:	ff 25 32 cf 03 00    	jmp    *0x3cf32(%rip)        # 3f098 <memset@GLIBC_2.2.5>
    2166:	68 13 00 00 00       	push   $0x13
    216b:	e9 b0 fe ff ff       	jmp    2020 <_init+0x20>

0000000000002170 <fgetc@plt>:
    2170:	ff 25 2a cf 03 00    	jmp    *0x3cf2a(%rip)        # 3f0a0 <fgetc@GLIBC_2.2.5>
    2176:	68 14 00 00 00       	push   $0x14
    217b:	e9 a0 fe ff ff       	jmp    2020 <_init+0x20>

0000000000002180 <log@plt>:
    2180:	ff 25 22 cf 03 00    	jmp    *0x3cf22(%rip)        # 3f0a8 <log@GLIBC_2.29>
    2186:	68 15 00 00 00       	push   $0x15
    218b:	e9 90 fe ff ff       	jmp    2020 <_init+0x20>

0000000000002190 <memcmp@plt>:
    2190:	ff 25 1a cf 03 00    	jmp    *0x3cf1a(%rip)        # 3f0b0 <memcmp@GLIBC_2.2.5>
    2196:	68 16 00 00 00       	push   $0x16
    219b:	e9 80 fe ff ff       	jmp    2020 <_init+0x20>

00000000000021a0 <frexp@plt>:
    21a0:	ff 25 12 cf 03 00    	jmp    *0x3cf12(%rip)        # 3f0b8 <frexp@GLIBC_2.2.5>
    21a6:	68 17 00 00 00       	push   $0x17
    21ab:	e9 70 fe ff ff       	jmp    2020 <_init+0x20>

00000000000021b0 <calloc@plt>:
    21b0:	ff 25 0a cf 03 00    	jmp    *0x3cf0a(%rip)        # 3f0c0 <calloc@GLIBC_2.2.5>
    21b6:	68 18 00 00 00       	push   $0x18
    21bb:	e9 60 fe ff ff       	jmp    2020 <_init+0x20>

00000000000021c0 <strcmp@plt>:
    21c0:	ff 25 02 cf 03 00    	jmp    *0x3cf02(%rip)        # 3f0c8 <strcmp@GLIBC_2.2.5>
    21c6:	68 19 00 00 00       	push   $0x19
    21cb:	e9 50 fe ff ff       	jmp    2020 <_init+0x20>

00000000000021d0 <fprintf@plt>:
    21d0:	ff 25 fa ce 03 00    	jmp    *0x3cefa(%rip)        # 3f0d0 <fprintf@GLIBC_2.2.5>
    21d6:	68 1a 00 00 00       	push   $0x1a
    21db:	e9 40 fe ff ff       	jmp    2020 <_init+0x20>

00000000000021e0 <ftell@plt>:
    21e0:	ff 25 f2 ce 03 00    	jmp    *0x3cef2(%rip)        # 3f0d8 <ftell@GLIBC_2.2.5>
    21e6:	68 1b 00 00 00       	push   $0x1b
    21eb:	e9 30 fe ff ff       	jmp    2020 <_init+0x20>

00000000000021f0 <feof@plt>:
    21f0:	ff 25 ea ce 03 00    	jmp    *0x3ceea(%rip)        # 3f0e0 <feof@GLIBC_2.2.5>
    21f6:	68 1c 00 00 00       	push   $0x1c
    21fb:	e9 20 fe ff ff       	jmp    2020 <_init+0x20>

0000000000002200 <strtol@plt>:
    2200:	ff 25 e2 ce 03 00    	jmp    *0x3cee2(%rip)        # 3f0e8 <strtol@GLIBC_2.2.5>
    2206:	68 1d 00 00 00       	push   $0x1d
    220b:	e9 10 fe ff ff       	jmp    2020 <_init+0x20>

0000000000002210 <memcpy@plt>:
    2210:	ff 25 da ce 03 00    	jmp    *0x3ceda(%rip)        # 3f0f0 <memcpy@GLIBC_2.14>
    2216:	68 1e 00 00 00       	push   $0x1e
    221b:	e9 00 fe ff ff       	jmp    2020 <_init+0x20>

0000000000002220 <pthread_exit@plt>:
    2220:	ff 25 d2 ce 03 00    	jmp    *0x3ced2(%rip)        # 3f0f8 <pthread_exit@GLIBC_2.2.5>
    2226:	68 1f 00 00 00       	push   $0x1f
    222b:	e9 f0 fd ff ff       	jmp    2020 <_init+0x20>

0000000000002230 <malloc@plt>:
    2230:	ff 25 ca ce 03 00    	jmp    *0x3ceca(%rip)        # 3f100 <malloc@GLIBC_2.2.5>
    2236:	68 20 00 00 00       	push   $0x20
    223b:	e9 e0 fd ff ff       	jmp    2020 <_init+0x20>

0000000000002240 <__isoc99_sscanf@plt>:
    2240:	ff 25 c2 ce 03 00    	jmp    *0x3cec2(%rip)        # 3f108 <__isoc99_sscanf@GLIBC_2.7>
    2246:	68 21 00 00 00       	push   $0x21
    224b:	e9 d0 fd ff ff       	jmp    2020 <_init+0x20>

0000000000002250 <ungetc@plt>:
    2250:	ff 25 ba ce 03 00    	jmp    *0x3ceba(%rip)        # 3f110 <ungetc@GLIBC_2.2.5>
    2256:	68 22 00 00 00       	push   $0x22
    225b:	e9 c0 fd ff ff       	jmp    2020 <_init+0x20>

0000000000002260 <fseek@plt>:
    2260:	ff 25 b2 ce 03 00    	jmp    *0x3ceb2(%rip)        # 3f118 <fseek@GLIBC_2.2.5>
    2266:	68 23 00 00 00       	push   $0x23
    226b:	e9 b0 fd ff ff       	jmp    2020 <_init+0x20>

0000000000002270 <realloc@plt>:
    2270:	ff 25 aa ce 03 00    	jmp    *0x3ceaa(%rip)        # 3f120 <realloc@GLIBC_2.2.5>
    2276:	68 24 00 00 00       	push   $0x24
    227b:	e9 a0 fd ff ff       	jmp    2020 <_init+0x20>

0000000000002280 <pthread_create@plt>:
    2280:	ff 25 a2 ce 03 00    	jmp    *0x3cea2(%rip)        # 3f128 <pthread_create@GLIBC_2.34>
    2286:	68 25 00 00 00       	push   $0x25
    228b:	e9 90 fd ff ff       	jmp    2020 <_init+0x20>

0000000000002290 <memmove@plt>:
    2290:	ff 25 9a ce 03 00    	jmp    *0x3ce9a(%rip)        # 3f130 <memmove@GLIBC_2.2.5>
    2296:	68 26 00 00 00       	push   $0x26
    229b:	e9 80 fd ff ff       	jmp    2020 <_init+0x20>

00000000000022a0 <access@plt>:
    22a0:	ff 25 92 ce 03 00    	jmp    *0x3ce92(%rip)        # 3f138 <access@GLIBC_2.2.5>
    22a6:	68 27 00 00 00       	push   $0x27
    22ab:	e9 70 fd ff ff       	jmp    2020 <_init+0x20>

00000000000022b0 <fopen@plt>:
    22b0:	ff 25 8a ce 03 00    	jmp    *0x3ce8a(%rip)        # 3f140 <fopen@GLIBC_2.2.5>
    22b6:	68 28 00 00 00       	push   $0x28
    22bb:	e9 60 fd ff ff       	jmp    2020 <_init+0x20>

00000000000022c0 <sprintf@plt>:
    22c0:	ff 25 82 ce 03 00    	jmp    *0x3ce82(%rip)        # 3f148 <sprintf@GLIBC_2.2.5>
    22c6:	68 29 00 00 00       	push   $0x29
    22cb:	e9 50 fd ff ff       	jmp    2020 <_init+0x20>

00000000000022d0 <exit@plt>:
    22d0:	ff 25 7a ce 03 00    	jmp    *0x3ce7a(%rip)        # 3f150 <exit@GLIBC_2.2.5>
    22d6:	68 2a 00 00 00       	push   $0x2a
    22db:	e9 40 fd ff ff       	jmp    2020 <_init+0x20>

00000000000022e0 <fwrite@plt>:
    22e0:	ff 25 72 ce 03 00    	jmp    *0x3ce72(%rip)        # 3f158 <fwrite@GLIBC_2.2.5>
    22e6:	68 2b 00 00 00       	push   $0x2b
    22eb:	e9 30 fd ff ff       	jmp    2020 <_init+0x20>

00000000000022f0 <aligned_alloc@plt>:
    22f0:	ff 25 6a ce 03 00    	jmp    *0x3ce6a(%rip)        # 3f160 <aligned_alloc@GLIBC_2.16>
    22f6:	68 2c 00 00 00       	push   $0x2c
    22fb:	e9 20 fd ff ff       	jmp    2020 <_init+0x20>

0000000000002300 <pthread_join@plt>:
    2300:	ff 25 62 ce 03 00    	jmp    *0x3ce62(%rip)        # 3f168 <pthread_join@GLIBC_2.34>
    2306:	68 2d 00 00 00       	push   $0x2d
    230b:	e9 10 fd ff ff       	jmp    2020 <_init+0x20>

0000000000002310 <strstr@plt>:
    2310:	ff 25 5a ce 03 00    	jmp    *0x3ce5a(%rip)        # 3f170 <strstr@GLIBC_2.2.5>
    2316:	68 2e 00 00 00       	push   $0x2e
    231b:	e9 00 fd ff ff       	jmp    2020 <_init+0x20>

Disassembly of section .plt.got:

0000000000002320 <__cxa_finalize@plt>:
    2320:	ff 25 aa cc 03 00    	jmp    *0x3ccaa(%rip)        # 3efd0 <__cxa_finalize@GLIBC_2.2.5>
    2326:	66 90                	xchg   %ax,%ax

Disassembly of section .text:

0000000000002330 <main>:
    2330:	53                   	push   %rbx
    2331:	e8 5a 29 00 00       	call   4c90 <cliparse>
    2336:	48 85 c0             	test   %rax,%rax
    2339:	74 28                	je     2363 <main+0x33>
    233b:	48 89 c7             	mov    %rax,%rdi
    233e:	48 89 c3             	mov    %rax,%rbx
    2341:	e8 1a 04 00 00       	call   2760 <process>
    2346:	48 8d 3d 65 8a 03 00 	lea    0x38a65(%rip),%rdi        # 3adb2 <stbi__bmask+0x9f2>
    234d:	48 89 c6             	mov    %rax,%rsi
    2350:	31 c0                	xor    %eax,%eax
    2352:	e8 c9 fd ff ff       	call   2120 <printf@plt>
    2357:	48 89 df             	mov    %rbx,%rdi
    235a:	e8 21 3a 00 00       	call   5d80 <cliparse_free>
    235f:	31 c0                	xor    %eax,%eax
    2361:	5b                   	pop    %rbx
    2362:	c3                   	ret
    2363:	83 c8 ff             	or     $0xffffffff,%eax
    2366:	5b                   	pop    %rbx
    2367:	c3                   	ret
    2368:	0f 1f 84 00 00 00 00 	nopl   0x0(%rax,%rax,1)
    236f:	00 

0000000000002370 <_start>:
    2370:	31 ed                	xor    %ebp,%ebp
    2372:	49 89 d1             	mov    %rdx,%r9
    2375:	5e                   	pop    %rsi
    2376:	48 89 e2             	mov    %rsp,%rdx
    2379:	48 83 e4 f0          	and    $0xfffffffffffffff0,%rsp
    237d:	50                   	push   %rax
    237e:	54                   	push   %rsp
    237f:	45 31 c0             	xor    %r8d,%r8d
    2382:	31 c9                	xor    %ecx,%ecx
    2384:	48 8d 3d a5 ff ff ff 	lea    -0x5b(%rip),%rdi        # 2330 <main>
    238b:	ff 15 1f cc 03 00    	call   *0x3cc1f(%rip)        # 3efb0 <__libc_start_main@GLIBC_2.34>
    2391:	f4                   	hlt
    2392:	66 2e 0f 1f 84 00 00 	cs nopw 0x0(%rax,%rax,1)
    2399:	00 00 00 
    239c:	0f 1f 40 00          	nopl   0x0(%rax)

00000000000023a0 <deregister_tm_clones>:
    23a0:	48 8d 3d 61 ce 03 00 	lea    0x3ce61(%rip),%rdi        # 3f208 <__TMC_END__>
    23a7:	48 8d 05 5a ce 03 00 	lea    0x3ce5a(%rip),%rax        # 3f208 <__TMC_END__>
    23ae:	48 39 f8             	cmp    %rdi,%rax
    23b1:	74 15                	je     23c8 <deregister_tm_clones+0x28>
    23b3:	48 8b 05 fe cb 03 00 	mov    0x3cbfe(%rip),%rax        # 3efb8 <_ITM_deregisterTMCloneTable@Base>
    23ba:	48 85 c0             	test   %rax,%rax
    23bd:	74 09                	je     23c8 <deregister_tm_clones+0x28>
    23bf:	ff e0                	jmp    *%rax
    23c1:	0f 1f 80 00 00 00 00 	nopl   0x0(%rax)
    23c8:	c3                   	ret
    23c9:	0f 1f 80 00 00 00 00 	nopl   0x0(%rax)

00000000000023d0 <register_tm_clones>:
    23d0:	48 8d 3d 31 ce 03 00 	lea    0x3ce31(%rip),%rdi        # 3f208 <__TMC_END__>
    23d7:	48 8d 35 2a ce 03 00 	lea    0x3ce2a(%rip),%rsi        # 3f208 <__TMC_END__>
    23de:	48 29 fe             	sub    %rdi,%rsi
    23e1:	48 89 f0             	mov    %rsi,%rax
    23e4:	48 c1 ee 3f          	shr    $0x3f,%rsi
    23e8:	48 c1 f8 03          	sar    $0x3,%rax
    23ec:	48 01 c6             	add    %rax,%rsi
    23ef:	48 d1 fe             	sar    %rsi
    23f2:	74 14                	je     2408 <register_tm_clones+0x38>
    23f4:	48 8b 05 cd cb 03 00 	mov    0x3cbcd(%rip),%rax        # 3efc8 <_ITM_registerTMCloneTable@Base>
    23fb:	48 85 c0             	test   %rax,%rax
    23fe:	74 08                	je     2408 <register_tm_clones+0x38>
    2400:	ff e0                	jmp    *%rax
    2402:	66 0f 1f 44 00 00    	nopw   0x0(%rax,%rax,1)
    2408:	c3                   	ret
    2409:	0f 1f 80 00 00 00 00 	nopl   0x0(%rax)

0000000000002410 <__do_global_dtors_aux>:
    2410:	f3 0f 1e fa          	endbr64
    2414:	80 3d 0d ce 03 00 00 	cmpb   $0x0,0x3ce0d(%rip)        # 3f228 <completed.0>
    241b:	75 2b                	jne    2448 <__do_global_dtors_aux+0x38>
    241d:	55                   	push   %rbp
    241e:	48 83 3d aa cb 03 00 	cmpq   $0x0,0x3cbaa(%rip)        # 3efd0 <__cxa_finalize@GLIBC_2.2.5>
    2425:	00 
    2426:	48 89 e5             	mov    %rsp,%rbp
    2429:	74 0c                	je     2437 <__do_global_dtors_aux+0x27>
    242b:	48 8b 3d 56 cd 03 00 	mov    0x3cd56(%rip),%rdi        # 3f188 <__dso_handle>
    2432:	e8 e9 fe ff ff       	call   2320 <__cxa_finalize@plt>
    2437:	e8 64 ff ff ff       	call   23a0 <deregister_tm_clones>
    243c:	c6 05 e5 cd 03 00 01 	movb   $0x1,0x3cde5(%rip)        # 3f228 <completed.0>
    2443:	5d                   	pop    %rbp
    2444:	c3                   	ret
    2445:	0f 1f 00             	nopl   (%rax)
    2448:	c3                   	ret
    2449:	0f 1f 80 00 00 00 00 	nopl   0x0(%rax)

0000000000002450 <frame_dummy>:
    2450:	f3 0f 1e fa          	endbr64
    2454:	e9 77 ff ff ff       	jmp    23d0 <register_tm_clones>
    2459:	0f 1f 80 00 00 00 00 	nopl   0x0(%rax)

0000000000002460 <process_smt_worker>:
    2460:	41 57                	push   %r15
    2462:	41 56                	push   %r14
    2464:	41 55                	push   %r13
    2466:	41 54                	push   %r12
    2468:	55                   	push   %rbp
    2469:	53                   	push   %rbx
    246a:	48 83 ec 68          	sub    $0x68,%rsp
    246e:	48 8b 47 18          	mov    0x18(%rdi),%rax
    2472:	4c 8b 68 08          	mov    0x8(%rax),%r13
    2476:	48 89 44 24 28       	mov    %rax,0x28(%rsp)
    247b:	4d 85 ed             	test   %r13,%r13
    247e:	0f 84 cf 02 00 00    	je     2753 <process_smt_worker+0x2f3>
    2484:	4c 8b 7f 08          	mov    0x8(%rdi),%r15
    2488:	49 89 fe             	mov    %rdi,%r14
    248b:	4c 3b 7f 10          	cmp    0x10(%rdi),%r15
    248f:	0f 83 b6 02 00 00    	jae    274b <process_smt_worker+0x2eb>
    2495:	4d 89 e8             	mov    %r13,%r8
    2498:	45 31 e4             	xor    %r12d,%r12d
    249b:	48 8b 44 24 28       	mov    0x28(%rsp),%rax
    24a0:	48 8d 1d f9 c8 03 00 	lea    0x3c8f9(%rip),%rbx        # 3eda0 <avx2_jump_table>
    24a7:	4c 89 f9             	mov    %r15,%rcx
    24aa:	4c 89 64 24 48       	mov    %r12,0x48(%rsp)
    24af:	4c 89 44 24 30       	mov    %r8,0x30(%rsp)
    24b4:	4c 89 74 24 40       	mov    %r14,0x40(%rsp)
    24b9:	48 8b 00             	mov    (%rax),%rax
    24bc:	4c 8b 48 08          	mov    0x8(%rax),%r9
    24c0:	48 8b 50 28          	mov    0x28(%rax),%rdx
    24c4:	48 8b 70 30          	mov    0x30(%rax),%rsi
    24c8:	48 8d 3c cd 00 00 00 	lea    0x0(,%rcx,8),%rdi
    24cf:	00 
    24d0:	48 8b 40 38          	mov    0x38(%rax),%rax
    24d4:	48 8b 14 3a          	mov    (%rdx,%rdi,1),%rdx
    24d8:	48 8b 34 3e          	mov    (%rsi,%rdi,1),%rsi
    24dc:	48 8b 3c 38          	mov    (%rax,%rdi,1),%rdi
    24e0:	49 83 f9 3f          	cmp    $0x3f,%r9
    24e4:	0f 86 e1 00 00 00    	jbe    25cb <process_smt_worker+0x16b>
    24ea:	41 bc 40 00 00 00    	mov    $0x40,%r12d
    24f0:	31 ed                	xor    %ebp,%ebp
    24f2:	48 89 4c 24 38       	mov    %rcx,0x38(%rsp)
    24f7:	48 89 54 24 08       	mov    %rdx,0x8(%rsp)
    24fc:	48 89 74 24 10       	mov    %rsi,0x10(%rsp)
    2501:	48 89 7c 24 20       	mov    %rdi,0x20(%rsp)
    2506:	66 2e 0f 1f 84 00 00 	cs nopw 0x0(%rax,%rax,1)
    250d:	00 00 00 
    2510:	48 8b 44 24 10       	mov    0x10(%rsp),%rax
    2515:	48 8b 4c 24 08       	mov    0x8(%rsp),%rcx
    251a:	4c 8b 6c 24 20       	mov    0x20(%rsp),%r13
    251f:	4c 8d 7c 05 00       	lea    0x0(%rbp,%rax,1),%r15
    2524:	4c 8d 74 0d 00       	lea    0x0(%rbp,%rcx,1),%r14
    2529:	4a 8d 54 2d 00       	lea    0x0(%rbp,%r13,1),%rdx
    252e:	4c 89 fe             	mov    %r15,%rsi
    2531:	4c 89 f7             	mov    %r14,%rdi
    2534:	43 0f 0d 4c 25 00    	prefetchw 0x0(%r13,%r12,1)
    253a:	48 89 54 24 18       	mov    %rdx,0x18(%rsp)
    253f:	e8 03 46 03 00       	call   36b47 <avx2_reg_load_8bpc>
    2544:	48 8b 4c 24 08       	mov    0x8(%rsp),%rcx
    2549:	48 8b 44 24 10       	mov    0x10(%rsp),%rax
    254e:	4c 8b 6c 24 30       	mov    0x30(%rsp),%r13
    2553:	42 0f 0d 0c 21       	prefetchw (%rcx,%r12,1)
    2558:	42 0f 0d 0c 20       	prefetchw (%rax,%r12,1)
    255d:	eb 12                	jmp    2571 <process_smt_worker+0x111>
    255f:	90                   	nop
    2560:	41 0f b6 7d 08       	movzbl 0x8(%r13),%edi
    2565:	ff 14 c3             	call   *(%rbx,%rax,8)
    2568:	4d 8b 6d 20          	mov    0x20(%r13),%r13
    256c:	4d 85 ed             	test   %r13,%r13
    256f:	74 0c                	je     257d <process_smt_worker+0x11d>
    2571:	41 8b 45 00          	mov    0x0(%r13),%eax
    2575:	8d 50 f0             	lea    -0x10(%rax),%edx
    2578:	83 fa 01             	cmp    $0x1,%edx
    257b:	77 e3                	ja     2560 <process_smt_worker+0x100>
    257d:	48 8b 54 24 18       	mov    0x18(%rsp),%rdx
    2582:	4c 89 fe             	mov    %r15,%rsi
    2585:	4c 89 f7             	mov    %r14,%rdi
    2588:	48 83 c5 40          	add    $0x40,%rbp
    258c:	49 81 c4 00 01 00 00 	add    $0x100,%r12
    2593:	e8 cb 45 03 00       	call   36b63 <avx2_reg_store_8bpc>
    2598:	48 8b 44 24 28       	mov    0x28(%rsp),%rax
    259d:	48 8b 00             	mov    (%rax),%rax
    25a0:	4c 8b 48 08          	mov    0x8(%rax),%r9
    25a4:	4c 89 ca             	mov    %r9,%rdx
    25a7:	48 83 e2 c0          	and    $0xffffffffffffffc0,%rdx
    25ab:	48 39 d5             	cmp    %rdx,%rbp
    25ae:	0f 82 5c ff ff ff    	jb     2510 <process_smt_worker+0xb0>
    25b4:	48 8b 4c 24 38       	mov    0x38(%rsp),%rcx
    25b9:	48 8b 74 24 40       	mov    0x40(%rsp),%rsi
    25be:	48 ff c1             	inc    %rcx
    25c1:	48 3b 4e 10          	cmp    0x10(%rsi),%rcx
    25c5:	0f 82 f5 fe ff ff    	jb     24c0 <process_smt_worker+0x60>
    25cb:	4c 8b 64 24 48       	mov    0x48(%rsp),%r12
    25d0:	4c 8b 74 24 40       	mov    0x40(%rsp),%r14
    25d5:	4d 85 ed             	test   %r13,%r13
    25d8:	74 12                	je     25ec <process_smt_worker+0x18c>
    25da:	41 8b 45 00          	mov    0x0(%r13),%eax
    25de:	83 f8 10             	cmp    $0x10,%eax
    25e1:	74 2d                	je     2610 <process_smt_worker+0x1b0>
    25e3:	83 f8 11             	cmp    $0x11,%eax
    25e6:	0f 84 a1 00 00 00    	je     268d <process_smt_worker+0x22d>
    25ec:	4d 8b 45 20          	mov    0x20(%r13),%r8
    25f0:	4d 85 c0             	test   %r8,%r8
    25f3:	0f 84 14 01 00 00    	je     270d <process_smt_worker+0x2ad>
    25f9:	4d 8b 7e 08          	mov    0x8(%r14),%r15
    25fd:	4d 3b 7e 10          	cmp    0x10(%r14),%r15
    2601:	0f 82 94 fe ff ff    	jb     249b <process_smt_worker+0x3b>
    2607:	41 8b 45 00          	mov    0x0(%r13),%eax
    260b:	83 f8 10             	cmp    $0x10,%eax
    260e:	75 d3                	jne    25e3 <process_smt_worker+0x183>
    2610:	49 8b 7e 20          	mov    0x20(%r14),%rdi
    2614:	e8 97 fa ff ff       	call   20b0 <pthread_barrier_wait@plt>
    2619:	48 8b 44 24 28       	mov    0x28(%rsp),%rax
    261e:	49 8b 56 10          	mov    0x10(%r14),%rdx
    2622:	48 8b 40 18          	mov    0x18(%rax),%rax
    2626:	48 89 44 24 08       	mov    %rax,0x8(%rsp)
    262b:	48 ff c8             	dec    %rax
    262e:	49 39 06             	cmp    %rax,(%r14)
    2631:	75 04                	jne    2637 <process_smt_worker+0x1d7>
    2633:	49 2b 55 10          	sub    0x10(%r13),%rdx
    2637:	c4 c1 7a 6f 45 08    	vmovdqu 0x8(%r13),%xmm0
    263d:	48 8b 44 24 28       	mov    0x28(%rsp),%rax
    2642:	48 83 ec 20          	sub    $0x20,%rsp
    2646:	49 8b 76 08          	mov    0x8(%r14),%rsi
    264a:	48 8b 38             	mov    (%rax),%rdi
    264d:	c5 fa 7f 04 24       	vmovdqu %xmm0,(%rsp)
    2652:	49 8b 45 18          	mov    0x18(%r13),%rax
    2656:	48 89 44 24 10       	mov    %rax,0x10(%rsp)
    265b:	e8 50 1e 00 00       	call   44b0 <simd_kern_8bpc_npl_smt>
    2660:	49 8b 7e 20          	mov    0x20(%r14),%rdi
    2664:	48 83 c4 20          	add    $0x20,%rsp
    2668:	e8 43 fa ff ff       	call   20b0 <pthread_barrier_wait@plt>
    266d:	49 83 3e 00          	cmpq   $0x0,(%r14)
    2671:	0f 84 c2 00 00 00    	je     2739 <process_smt_worker+0x2d9>
    2677:	49 8b 7e 20          	mov    0x20(%r14),%rdi
    267b:	e8 30 fa ff ff       	call   20b0 <pthread_barrier_wait@plt>
    2680:	41 8b 45 00          	mov    0x0(%r13),%eax
    2684:	83 f8 11             	cmp    $0x11,%eax
    2687:	0f 85 5f ff ff ff    	jne    25ec <process_smt_worker+0x18c>
    268d:	49 83 3e 00          	cmpq   $0x0,(%r14)
    2691:	0f 85 8b 00 00 00    	jne    2722 <process_smt_worker+0x2c2>
    2697:	48 8d 5c 24 50       	lea    0x50(%rsp),%rbx
    269c:	bf 02 00 00 00       	mov    $0x2,%edi
    26a1:	48 89 de             	mov    %rbx,%rsi
    26a4:	e8 27 fa ff ff       	call   20d0 <clock_gettime@plt>
    26a9:	49 8b 7e 28          	mov    0x28(%r14),%rdi
    26ad:	4c 8b 7c 24 50       	mov    0x50(%rsp),%r15
    26b2:	48 8b 6c 24 58       	mov    0x58(%rsp),%rbp
    26b7:	e8 f4 f9 ff ff       	call   20b0 <pthread_barrier_wait@plt>
    26bc:	48 8b 44 24 28       	mov    0x28(%rsp),%rax
    26c1:	49 8b 75 08          	mov    0x8(%r13),%rsi
    26c5:	48 8b 38             	mov    (%rax),%rdi
    26c8:	e8 93 38 03 00       	call   35f60 <img_fwrite>
    26cd:	49 8b 7e 28          	mov    0x28(%r14),%rdi
    26d1:	e8 da f9 ff ff       	call   20b0 <pthread_barrier_wait@plt>
    26d6:	48 89 de             	mov    %rbx,%rsi
    26d9:	bf 02 00 00 00       	mov    $0x2,%edi
    26de:	e8 ed f9 ff ff       	call   20d0 <clock_gettime@plt>
    26e3:	48 8b 44 24 50       	mov    0x50(%rsp),%rax
    26e8:	48 8b 54 24 58       	mov    0x58(%rsp),%rdx
    26ed:	4d 8b 45 20          	mov    0x20(%r13),%r8
    26f1:	4c 29 f8             	sub    %r15,%rax
    26f4:	48 69 c0 00 ca 9a 3b 	imul   $0x3b9aca00,%rax,%rax
    26fb:	48 29 ea             	sub    %rbp,%rdx
    26fe:	48 01 d0             	add    %rdx,%rax
    2701:	49 01 c4             	add    %rax,%r12
    2704:	4d 85 c0             	test   %r8,%r8
    2707:	0f 85 ec fe ff ff    	jne    25f9 <process_smt_worker+0x199>
    270d:	bf 08 00 00 00       	mov    $0x8,%edi
    2712:	e8 19 fb ff ff       	call   2230 <malloc@plt>
    2717:	48 89 c7             	mov    %rax,%rdi
    271a:	4c 89 20             	mov    %r12,(%rax)
    271d:	e8 fe fa ff ff       	call   2220 <pthread_exit@plt>
    2722:	49 8b 7e 28          	mov    0x28(%r14),%rdi
    2726:	e8 85 f9 ff ff       	call   20b0 <pthread_barrier_wait@plt>
    272b:	49 8b 7e 28          	mov    0x28(%r14),%rdi
    272f:	e8 7c f9 ff ff       	call   20b0 <pthread_barrier_wait@plt>
    2734:	e9 b3 fe ff ff       	jmp    25ec <process_smt_worker+0x18c>
    2739:	48 8b 44 24 28       	mov    0x28(%rsp),%rax
    273e:	48 8b 38             	mov    (%rax),%rdi
    2741:	e8 fa 1d 00 00       	call   4540 <simd_kswap_8bpc_npl_smt>
    2746:	e9 2c ff ff ff       	jmp    2677 <process_smt_worker+0x217>
    274b:	45 31 e4             	xor    %r12d,%r12d
    274e:	e9 87 fe ff ff       	jmp    25da <process_smt_worker+0x17a>
    2753:	45 31 e4             	xor    %r12d,%r12d
    2756:	eb b5                	jmp    270d <process_smt_worker+0x2ad>
    2758:	0f 1f 84 00 00 00 00 	nopl   0x0(%rax,%rax,1)
    275f:	00 

0000000000002760 <process>:
    2760:	41 57                	push   %r15
    2762:	41 56                	push   %r14
    2764:	31 c0                	xor    %eax,%eax
    2766:	49 89 ff             	mov    %rdi,%r15
    2769:	41 55                	push   %r13
    276b:	41 54                	push   %r12
    276d:	55                   	push   %rbp
    276e:	53                   	push   %rbx
    276f:	48 81 ec b8 00 00 00 	sub    $0xb8,%rsp
    2776:	80 7f 11 00          	cmpb   $0x0,0x11(%rdi)
    277a:	0f b6 57 10          	movzbl 0x10(%rdi),%edx
    277e:	0f 85 10 02 00 00    	jne    2994 <process+0x234>
    2784:	84 d2                	test   %dl,%dl
    2786:	0f 85 f6 01 00 00    	jne    2982 <process+0x222>
    278c:	48 8b 47 18          	mov    0x18(%rdi),%rax
    2790:	48 85 c0             	test   %rax,%rax
    2793:	0f 85 56 02 00 00    	jne    29ef <process+0x28f>
    2799:	48 8d 84 24 90 00 00 	lea    0x90(%rsp),%rax
    27a0:	00 
    27a1:	bf 02 00 00 00       	mov    $0x2,%edi
    27a6:	31 db                	xor    %ebx,%ebx
    27a8:	4c 8d 25 f1 c5 03 00 	lea    0x3c5f1(%rip),%r12        # 3eda0 <avx2_jump_table>
    27af:	48 89 c6             	mov    %rax,%rsi
    27b2:	48 89 44 24 40       	mov    %rax,0x40(%rsp)
    27b7:	e8 14 f9 ff ff       	call   20d0 <clock_gettime@plt>
    27bc:	4d 8b 6f 08          	mov    0x8(%r15),%r13
    27c0:	4c 8b b4 24 90 00 00 	mov    0x90(%rsp),%r14
    27c7:	00 
    27c8:	48 8b ac 24 98 00 00 	mov    0x98(%rsp),%rbp
    27cf:	00 
    27d0:	4d 89 e8             	mov    %r13,%r8
    27d3:	4d 85 ed             	test   %r13,%r13
    27d6:	0f 84 74 01 00 00    	je     2950 <process+0x1f0>
    27dc:	4c 89 74 24 48       	mov    %r14,0x48(%rsp)
    27e1:	48 89 6c 24 50       	mov    %rbp,0x50(%rsp)
    27e6:	4d 89 ee             	mov    %r13,%r14
    27e9:	4c 89 7c 24 28       	mov    %r15,0x28(%rsp)
    27ee:	48 8b 44 24 28       	mov    0x28(%rsp),%rax
    27f3:	48 8b 00             	mov    (%rax),%rax
    27f6:	48 83 78 10 00       	cmpq   $0x0,0x10(%rax)
    27fb:	0f 84 23 01 00 00    	je     2924 <process+0x1c4>
    2801:	4c 8b 48 08          	mov    0x8(%rax),%r9
    2805:	31 c9                	xor    %ecx,%ecx
    2807:	4c 89 44 24 30       	mov    %r8,0x30(%rsp)
    280c:	4d 89 f5             	mov    %r14,%r13
    280f:	48 89 5c 24 58       	mov    %rbx,0x58(%rsp)
    2814:	66 66 2e 0f 1f 84 00 	data16 cs nopw 0x0(%rax,%rax,1)
    281b:	00 00 00 00 
    281f:	90                   	nop
    2820:	48 8b 50 28          	mov    0x28(%rax),%rdx
    2824:	48 8d 3c cd 00 00 00 	lea    0x0(,%rcx,8),%rdi
    282b:	00 
    282c:	48 8b 70 30          	mov    0x30(%rax),%rsi
    2830:	4c 8b 50 38          	mov    0x38(%rax),%r10
    2834:	48 8b 14 3a          	mov    (%rdx,%rdi,1),%rdx
    2838:	48 8b 34 3e          	mov    (%rsi,%rdi,1),%rsi
    283c:	49 8b 3c 3a          	mov    (%r10,%rdi,1),%rdi
    2840:	49 83 f9 3f          	cmp    $0x3f,%r9
    2844:	0f 86 cd 00 00 00    	jbe    2917 <process+0x1b7>
    284a:	31 db                	xor    %ebx,%ebx
    284c:	bd 40 00 00 00       	mov    $0x40,%ebp
    2851:	48 89 54 24 10       	mov    %rdx,0x10(%rsp)
    2856:	48 89 74 24 18       	mov    %rsi,0x18(%rsp)
    285b:	48 89 7c 24 20       	mov    %rdi,0x20(%rsp)
    2860:	48 89 4c 24 38       	mov    %rcx,0x38(%rsp)
    2865:	66 66 2e 0f 1f 84 00 	data16 cs nopw 0x0(%rax,%rax,1)
    286c:	00 00 00 00 
    2870:	48 8b 74 24 20       	mov    0x20(%rsp),%rsi
    2875:	48 8b 44 24 10       	mov    0x10(%rsp),%rax
    287a:	48 8b 4c 24 18       	mov    0x18(%rsp),%rcx
    287f:	4c 8d 34 1e          	lea    (%rsi,%rbx,1),%r14
    2883:	4c 8d 3c 03          	lea    (%rbx,%rax,1),%r15
    2887:	0f 0d 0c 2e          	prefetchw (%rsi,%rbp,1)
    288b:	0f 0d 0c 28          	prefetchw (%rax,%rbp,1)
    288f:	48 8d 34 19          	lea    (%rcx,%rbx,1),%rsi
    2893:	4c 89 f2             	mov    %r14,%rdx
    2896:	4c 89 ff             	mov    %r15,%rdi
    2899:	0f 0d 0c 29          	prefetchw (%rcx,%rbp,1)
    289d:	48 89 74 24 08       	mov    %rsi,0x8(%rsp)
    28a2:	e8 a0 42 03 00       	call   36b47 <avx2_reg_load_8bpc>
    28a7:	4c 8b 6c 24 30       	mov    0x30(%rsp),%r13
    28ac:	eb 14                	jmp    28c2 <process+0x162>
    28ae:	66 90                	xchg   %ax,%ax
    28b0:	41 0f b6 7d 08       	movzbl 0x8(%r13),%edi
    28b5:	41 ff 14 c4          	call   *(%r12,%rax,8)
    28b9:	4d 8b 6d 20          	mov    0x20(%r13),%r13
    28bd:	4d 85 ed             	test   %r13,%r13
    28c0:	74 0c                	je     28ce <process+0x16e>
    28c2:	41 8b 45 00          	mov    0x0(%r13),%eax
    28c6:	8d 50 f0             	lea    -0x10(%rax),%edx
    28c9:	83 fa 01             	cmp    $0x1,%edx
    28cc:	77 e2                	ja     28b0 <process+0x150>
    28ce:	48 8b 74 24 08       	mov    0x8(%rsp),%rsi
    28d3:	4c 89 f2             	mov    %r14,%rdx
    28d6:	4c 89 ff             	mov    %r15,%rdi
    28d9:	48 83 c3 40          	add    $0x40,%rbx
    28dd:	48 81 c5 00 01 00 00 	add    $0x100,%rbp
    28e4:	e8 7a 42 03 00       	call   36b63 <avx2_reg_store_8bpc>
    28e9:	48 8b 44 24 28       	mov    0x28(%rsp),%rax
    28ee:	48 8b 00             	mov    (%rax),%rax
    28f1:	4c 8b 48 08          	mov    0x8(%rax),%r9
    28f5:	4c 89 ca             	mov    %r9,%rdx
    28f8:	48 83 e2 c0          	and    $0xffffffffffffffc0,%rdx
    28fc:	48 39 d3             	cmp    %rdx,%rbx
    28ff:	0f 82 6b ff ff ff    	jb     2870 <process+0x110>
    2905:	48 8b 4c 24 38       	mov    0x38(%rsp),%rcx
    290a:	48 ff c1             	inc    %rcx
    290d:	48 3b 48 10          	cmp    0x10(%rax),%rcx
    2911:	0f 82 09 ff ff ff    	jb     2820 <process+0xc0>
    2917:	48 8b 5c 24 58       	mov    0x58(%rsp),%rbx
    291c:	4d 89 ee             	mov    %r13,%r14
    291f:	4d 85 ed             	test   %r13,%r13
    2922:	74 15                	je     2939 <process+0x1d9>
    2924:	41 8b 16             	mov    (%r14),%edx
    2927:	83 fa 10             	cmp    $0x10,%edx
    292a:	0f 84 f2 02 00 00    	je     2c22 <process+0x4c2>
    2930:	83 fa 11             	cmp    $0x11,%edx
    2933:	0f 84 81 02 00 00    	je     2bba <process+0x45a>
    2939:	4d 8b 46 20          	mov    0x20(%r14),%r8
    293d:	4d 85 c0             	test   %r8,%r8
    2940:	0f 85 a8 fe ff ff    	jne    27ee <process+0x8e>
    2946:	4c 8b 74 24 48       	mov    0x48(%rsp),%r14
    294b:	48 8b 6c 24 50       	mov    0x50(%rsp),%rbp
    2950:	48 8b 74 24 40       	mov    0x40(%rsp),%rsi
    2955:	bf 02 00 00 00       	mov    $0x2,%edi
    295a:	e8 71 f7 ff ff       	call   20d0 <clock_gettime@plt>
    295f:	48 8b 84 24 90 00 00 	mov    0x90(%rsp),%rax
    2966:	00 
    2967:	4c 29 f0             	sub    %r14,%rax
    296a:	48 8b 94 24 98 00 00 	mov    0x98(%rsp),%rdx
    2971:	00 
    2972:	48 69 c0 00 ca 9a 3b 	imul   $0x3b9aca00,%rax,%rax
    2979:	48 29 ea             	sub    %rbp,%rdx
    297c:	48 01 d0             	add    %rdx,%rax
    297f:	48 29 d8             	sub    %rbx,%rax
    2982:	48 81 c4 b8 00 00 00 	add    $0xb8,%rsp
    2989:	5b                   	pop    %rbx
    298a:	5d                   	pop    %rbp
    298b:	41 5c                	pop    %r12
    298d:	41 5d                	pop    %r13
    298f:	41 5e                	pop    %r14
    2991:	41 5f                	pop    %r15
    2993:	c3                   	ret
    2994:	84 d2                	test   %dl,%dl
    2996:	74 ea                	je     2982 <process+0x222>
    2998:	48 8d 84 24 90 00 00 	lea    0x90(%rsp),%rax
    299f:	00 
    29a0:	bf 02 00 00 00       	mov    $0x2,%edi
    29a5:	31 db                	xor    %ebx,%ebx
    29a7:	48 89 c6             	mov    %rax,%rsi
    29aa:	48 89 44 24 40       	mov    %rax,0x40(%rsp)
    29af:	e8 1c f7 ff ff       	call   20d0 <clock_gettime@plt>
    29b4:	4d 8b 77 08          	mov    0x8(%r15),%r14
    29b8:	4c 8b a4 24 90 00 00 	mov    0x90(%rsp),%r12
    29bf:	00 
    29c0:	48 8b ac 24 98 00 00 	mov    0x98(%rsp),%rbp
    29c7:	00 
    29c8:	4d 85 f6             	test   %r14,%r14
    29cb:	0f 84 92 02 00 00    	je     2c63 <process+0x503>
    29d1:	4c 8d 2d 2c 46 03 00 	lea    0x3462c(%rip),%r13        # 37004 <_IO_stdin_used+0x4>
    29d8:	41 83 3e 11          	cmpl   $0x11,(%r14)
    29dc:	0f 87 74 02 00 00    	ja     2c56 <process+0x4f6>
    29e2:	41 8b 06             	mov    (%r14),%eax
    29e5:	49 63 44 85 00       	movslq 0x0(%r13,%rax,4),%rax
    29ea:	4c 01 e8             	add    %r13,%rax
    29ed:	ff e0                	jmp    *%rax
    29ef:	4c 8d 74 24 70       	lea    0x70(%rsp),%r14
    29f4:	89 c2                	mov    %eax,%edx
    29f6:	31 f6                	xor    %esi,%esi
    29f8:	4c 89 f7             	mov    %r14,%rdi
    29fb:	e8 70 f6 ff ff       	call   2070 <pthread_barrier_init@plt>
    2a00:	41 8b 57 18          	mov    0x18(%r15),%edx
    2a04:	48 8d 84 24 90 00 00 	lea    0x90(%rsp),%rax
    2a0b:	00 
    2a0c:	31 f6                	xor    %esi,%esi
    2a0e:	48 89 c7             	mov    %rax,%rdi
    2a11:	48 89 44 24 40       	mov    %rax,0x40(%rsp)
    2a16:	e8 55 f6 ff ff       	call   2070 <pthread_barrier_init@plt>
    2a1b:	49 8b 6f 18          	mov    0x18(%r15),%rbp
    2a1f:	4c 8d 64 6d 00       	lea    0x0(%rbp,%rbp,2),%r12
    2a24:	49 c1 e4 04          	shl    $0x4,%r12
    2a28:	4c 89 e7             	mov    %r12,%rdi
    2a2b:	e8 00 f8 ff ff       	call   2230 <malloc@plt>
    2a30:	48 89 c3             	mov    %rax,%rbx
    2a33:	49 8b 07             	mov    (%r15),%rax
    2a36:	48 8b 48 10          	mov    0x10(%rax),%rcx
    2a3a:	48 85 ed             	test   %rbp,%rbp
    2a3d:	74 42                	je     2a81 <process+0x321>
    2a3f:	48 89 c8             	mov    %rcx,%rax
    2a42:	31 d2                	xor    %edx,%edx
    2a44:	31 ff                	xor    %edi,%edi
    2a46:	31 f6                	xor    %esi,%esi
    2a48:	48 f7 f5             	div    %rbp
    2a4b:	48 89 da             	mov    %rbx,%rdx
    2a4e:	4c 8b 5c 24 40       	mov    0x40(%rsp),%r11
    2a53:	c4 e1 f9 6e d6       	vmovq  %rsi,%xmm2
    2a58:	48 ff c6             	inc    %rsi
    2a5b:	c4 e3 e9 22 c7 01    	vpinsrq $0x1,%rdi,%xmm2,%xmm0
    2a61:	48 01 c7             	add    %rax,%rdi
    2a64:	c5 fa 7f 02          	vmovdqu %xmm0,(%rdx)
    2a68:	4c 89 7a 18          	mov    %r15,0x18(%rdx)
    2a6c:	48 83 c2 30          	add    $0x30,%rdx
    2a70:	48 89 7a e0          	mov    %rdi,-0x20(%rdx)
    2a74:	4c 89 72 f0          	mov    %r14,-0x10(%rdx)
    2a78:	4c 89 5a f8          	mov    %r11,-0x8(%rdx)
    2a7c:	48 39 f5             	cmp    %rsi,%rbp
    2a7f:	75 cd                	jne    2a4e <process+0x2ee>
    2a81:	48 8d 3c ed 00 00 00 	lea    0x0(,%rbp,8),%rdi
    2a88:	00 
    2a89:	4a 89 4c 23 e0       	mov    %rcx,-0x20(%rbx,%r12,1)
    2a8e:	4c 8d 6c 24 60       	lea    0x60(%rsp),%r13
    2a93:	e8 98 f7 ff ff       	call   2230 <malloc@plt>
    2a98:	4c 89 ee             	mov    %r13,%rsi
    2a9b:	bf 02 00 00 00       	mov    $0x2,%edi
    2aa0:	48 89 c5             	mov    %rax,%rbp
    2aa3:	e8 28 f6 ff ff       	call   20d0 <clock_gettime@plt>
    2aa8:	48 8b 44 24 60       	mov    0x60(%rsp),%rax
    2aad:	49 83 7f 18 00       	cmpq   $0x0,0x18(%r15)
    2ab2:	48 89 44 24 08       	mov    %rax,0x8(%rsp)
    2ab7:	48 8b 44 24 68       	mov    0x68(%rsp),%rax
    2abc:	48 89 44 24 10       	mov    %rax,0x10(%rsp)
    2ac1:	0f 84 31 02 00 00    	je     2cf8 <process+0x598>
    2ac7:	48 89 d9             	mov    %rbx,%rcx
    2aca:	4c 89 6c 24 18       	mov    %r13,0x18(%rsp)
    2acf:	4c 89 74 24 20       	mov    %r14,0x20(%rsp)
    2ad4:	49 89 dd             	mov    %rbx,%r13
    2ad7:	49 89 ee             	mov    %rbp,%r14
    2ada:	48 89 eb             	mov    %rbp,%rbx
    2add:	45 31 e4             	xor    %r12d,%r12d
    2ae0:	48 89 cd             	mov    %rcx,%rbp
    2ae3:	48 89 e9             	mov    %rbp,%rcx
    2ae6:	48 89 df             	mov    %rbx,%rdi
    2ae9:	48 8d 15 70 f9 ff ff 	lea    -0x690(%rip),%rdx        # 2460 <process_smt_worker>
    2af0:	31 f6                	xor    %esi,%esi
    2af2:	49 ff c4             	inc    %r12
    2af5:	48 83 c3 08          	add    $0x8,%rbx
    2af9:	e8 82 f7 ff ff       	call   2280 <pthread_create@plt>
    2afe:	49 8b 47 18          	mov    0x18(%r15),%rax
    2b02:	48 83 c5 30          	add    $0x30,%rbp
    2b06:	49 39 c4             	cmp    %rax,%r12
    2b09:	72 d8                	jb     2ae3 <process+0x383>
    2b0b:	4c 89 eb             	mov    %r13,%rbx
    2b0e:	4c 89 f5             	mov    %r14,%rbp
    2b11:	4c 8b 6c 24 18       	mov    0x18(%rsp),%r13
    2b16:	4c 8b 74 24 20       	mov    0x20(%rsp),%r14
    2b1b:	48 85 c0             	test   %rax,%rax
    2b1e:	0f 84 d4 01 00 00    	je     2cf8 <process+0x598>
    2b24:	31 d2                	xor    %edx,%edx
    2b26:	4c 89 74 24 18       	mov    %r14,0x18(%rsp)
    2b2b:	45 31 e4             	xor    %r12d,%r12d
    2b2e:	49 89 de             	mov    %rbx,%r14
    2b31:	48 89 d3             	mov    %rdx,%rbx
    2b34:	48 8b 7c dd 00       	mov    0x0(%rbp,%rbx,8),%rdi
    2b39:	4c 89 ee             	mov    %r13,%rsi
    2b3c:	48 ff c3             	inc    %rbx
    2b3f:	e8 bc f7 ff ff       	call   2300 <pthread_join@plt>
    2b44:	48 8b 7c 24 60       	mov    0x60(%rsp),%rdi
    2b49:	4c 03 27             	add    (%rdi),%r12
    2b4c:	e8 df f4 ff ff       	call   2030 <free@plt>
    2b51:	49 3b 5f 18          	cmp    0x18(%r15),%rbx
    2b55:	72 dd                	jb     2b34 <process+0x3d4>
    2b57:	4c 89 f3             	mov    %r14,%rbx
    2b5a:	4c 8b 74 24 18       	mov    0x18(%rsp),%r14
    2b5f:	4c 89 f7             	mov    %r14,%rdi
    2b62:	e8 c9 f5 ff ff       	call   2130 <pthread_barrier_destroy@plt>
    2b67:	48 8b 7c 24 40       	mov    0x40(%rsp),%rdi
    2b6c:	e8 bf f5 ff ff       	call   2130 <pthread_barrier_destroy@plt>
    2b71:	48 89 df             	mov    %rbx,%rdi
    2b74:	e8 b7 f4 ff ff       	call   2030 <free@plt>
    2b79:	48 89 ef             	mov    %rbp,%rdi
    2b7c:	e8 af f4 ff ff       	call   2030 <free@plt>
    2b81:	4c 89 ee             	mov    %r13,%rsi
    2b84:	bf 02 00 00 00       	mov    $0x2,%edi
    2b89:	e8 42 f5 ff ff       	call   20d0 <clock_gettime@plt>
    2b8e:	48 8b 4c 24 08       	mov    0x8(%rsp),%rcx
    2b93:	48 8b 44 24 60       	mov    0x60(%rsp),%rax
    2b98:	48 8b 54 24 68       	mov    0x68(%rsp),%rdx
    2b9d:	48 29 c8             	sub    %rcx,%rax
    2ba0:	48 8b 4c 24 10       	mov    0x10(%rsp),%rcx
    2ba5:	48 69 c0 00 ca 9a 3b 	imul   $0x3b9aca00,%rax,%rax
    2bac:	48 29 ca             	sub    %rcx,%rdx
    2baf:	48 01 d0             	add    %rdx,%rax
    2bb2:	4c 29 e0             	sub    %r12,%rax
    2bb5:	e9 c8 fd ff ff       	jmp    2982 <process+0x222>
    2bba:	4c 8b 7c 24 40       	mov    0x40(%rsp),%r15
    2bbf:	bf 02 00 00 00       	mov    $0x2,%edi
    2bc4:	4c 89 fe             	mov    %r15,%rsi
    2bc7:	e8 04 f5 ff ff       	call   20d0 <clock_gettime@plt>
    2bcc:	48 8b 44 24 28       	mov    0x28(%rsp),%rax
    2bd1:	49 8b 76 08          	mov    0x8(%r14),%rsi
    2bd5:	4c 8b ac 24 90 00 00 	mov    0x90(%rsp),%r13
    2bdc:	00 
    2bdd:	48 8b ac 24 98 00 00 	mov    0x98(%rsp),%rbp
    2be4:	00 
    2be5:	48 8b 38             	mov    (%rax),%rdi
    2be8:	e8 73 33 03 00       	call   35f60 <img_fwrite>
    2bed:	4c 89 fe             	mov    %r15,%rsi
    2bf0:	bf 02 00 00 00       	mov    $0x2,%edi
    2bf5:	e8 d6 f4 ff ff       	call   20d0 <clock_gettime@plt>
    2bfa:	48 8b 84 24 90 00 00 	mov    0x90(%rsp),%rax
    2c01:	00 
    2c02:	48 8b 94 24 98 00 00 	mov    0x98(%rsp),%rdx
    2c09:	00 
    2c0a:	4c 29 e8             	sub    %r13,%rax
    2c0d:	48 69 c0 00 ca 9a 3b 	imul   $0x3b9aca00,%rax,%rax
    2c14:	48 29 ea             	sub    %rbp,%rdx
    2c17:	48 01 d0             	add    %rdx,%rax
    2c1a:	48 01 c3             	add    %rax,%rbx
    2c1d:	e9 17 fd ff ff       	jmp    2939 <process+0x1d9>
    2c22:	c4 c1 7a 6f 5e 08    	vmovdqu 0x8(%r14),%xmm3
    2c28:	48 83 ec 20          	sub    $0x20,%rsp
    2c2c:	48 89 c7             	mov    %rax,%rdi
    2c2f:	c5 fa 7f 1c 24       	vmovdqu %xmm3,(%rsp)
    2c34:	49 8b 56 18          	mov    0x18(%r14),%rdx
    2c38:	48 89 54 24 10       	mov    %rdx,0x10(%rsp)
    2c3d:	e8 4e 19 00 00       	call   4590 <simd_kern_8bpc_npl>
    2c42:	41 8b 16             	mov    (%r14),%edx
    2c45:	48 83 c4 20          	add    $0x20,%rsp
    2c49:	e9 e2 fc ff ff       	jmp    2930 <process+0x1d0>
    2c4e:	49 8b 3f             	mov    (%r15),%rdi
    2c51:	e8 8a 09 00 00       	call   35e0 <gs_8bpc_npl>
    2c56:	4d 8b 76 20          	mov    0x20(%r14),%r14
    2c5a:	4d 85 f6             	test   %r14,%r14
    2c5d:	0f 85 75 fd ff ff    	jne    29d8 <process+0x278>
    2c63:	48 8b 74 24 40       	mov    0x40(%rsp),%rsi
    2c68:	bf 02 00 00 00       	mov    $0x2,%edi
    2c6d:	e8 5e f4 ff ff       	call   20d0 <clock_gettime@plt>
    2c72:	48 8b 84 24 90 00 00 	mov    0x90(%rsp),%rax
    2c79:	00 
    2c7a:	4c 29 e0             	sub    %r12,%rax
    2c7d:	e9 e8 fc ff ff       	jmp    296a <process+0x20a>
    2c82:	48 8b 74 24 40       	mov    0x40(%rsp),%rsi
    2c87:	bf 02 00 00 00       	mov    $0x2,%edi
    2c8c:	e8 3f f4 ff ff       	call   20d0 <clock_gettime@plt>
    2c91:	48 8b 94 24 90 00 00 	mov    0x90(%rsp),%rdx
    2c98:	00 
    2c99:	48 8b 8c 24 98 00 00 	mov    0x98(%rsp),%rcx
    2ca0:	00 
    2ca1:	49 8b 76 08          	mov    0x8(%r14),%rsi
    2ca5:	49 8b 3f             	mov    (%r15),%rdi
    2ca8:	48 89 54 24 10       	mov    %rdx,0x10(%rsp)
    2cad:	48 89 4c 24 08       	mov    %rcx,0x8(%rsp)
    2cb2:	e8 a9 32 03 00       	call   35f60 <img_fwrite>
    2cb7:	bf 02 00 00 00       	mov    $0x2,%edi
    2cbc:	48 8b 74 24 40       	mov    0x40(%rsp),%rsi
    2cc1:	e8 0a f4 ff ff       	call   20d0 <clock_gettime@plt>
    2cc6:	48 8b 54 24 10       	mov    0x10(%rsp),%rdx
    2ccb:	48 8b 84 24 90 00 00 	mov    0x90(%rsp),%rax
    2cd2:	00 
    2cd3:	48 8b 4c 24 08       	mov    0x8(%rsp),%rcx
    2cd8:	48 29 d0             	sub    %rdx,%rax
    2cdb:	48 8b 94 24 98 00 00 	mov    0x98(%rsp),%rdx
    2ce2:	00 
    2ce3:	48 69 c0 00 ca 9a 3b 	imul   $0x3b9aca00,%rax,%rax
    2cea:	48 29 ca             	sub    %rcx,%rdx
    2ced:	48 01 d0             	add    %rdx,%rax
    2cf0:	48 01 c3             	add    %rax,%rbx
    2cf3:	e9 5e ff ff ff       	jmp    2c56 <process+0x4f6>
    2cf8:	45 31 e4             	xor    %r12d,%r12d
    2cfb:	e9 5f fe ff ff       	jmp    2b5f <process+0x3ff>
    2d00:	c4 c1 7a 6f 4e 08    	vmovdqu 0x8(%r14),%xmm1
    2d06:	48 83 ec 20          	sub    $0x20,%rsp
    2d0a:	49 8b 3f             	mov    (%r15),%rdi
    2d0d:	c5 fa 7f 0c 24       	vmovdqu %xmm1,(%rsp)
    2d12:	49 8b 46 18          	mov    0x18(%r14),%rax
    2d16:	48 89 44 24 10       	mov    %rax,0x10(%rsp)
    2d1b:	e8 80 19 00 00       	call   46a0 <kern_8bpc_npl>
    2d20:	48 83 c4 20          	add    $0x20,%rsp
    2d24:	e9 2d ff ff ff       	jmp    2c56 <process+0x4f6>
    2d29:	49 8b 3f             	mov    (%r15),%rdi
    2d2c:	be ff 00 00 00       	mov    $0xff,%esi
    2d31:	e8 0a 06 00 00       	call   3340 <subi_8bpc_npl>
    2d36:	e9 1b ff ff ff       	jmp    2c56 <process+0x4f6>
    2d3b:	49 8b 3f             	mov    (%r15),%rdi
    2d3e:	e8 9d 01 00 00       	call   2ee0 <abs_8bpc_npl>
    2d43:	e9 0e ff ff ff       	jmp    2c56 <process+0x4f6>
    2d48:	49 8b 3f             	mov    (%r15),%rdi
    2d4b:	e8 70 10 00 00       	call   3dc0 <log_8bpc_npl>
    2d50:	e9 01 ff ff ff       	jmp    2c56 <process+0x4f6>
    2d55:	41 0f b6 76 08       	movzbl 0x8(%r14),%esi
    2d5a:	49 8b 3f             	mov    (%r15),%rdi
    2d5d:	e8 9e 0d 00 00       	call   3b00 <max_8bpc_npl>
    2d62:	e9 ef fe ff ff       	jmp    2c56 <process+0x4f6>
    2d67:	41 0f b6 76 08       	movzbl 0x8(%r14),%esi
    2d6c:	49 8b 3f             	mov    (%r15),%rdi
    2d6f:	e8 4c 03 00 00       	call   30c0 <min_8bpc_npl>
    2d74:	e9 dd fe ff ff       	jmp    2c56 <process+0x4f6>
    2d79:	41 0f b6 76 08       	movzbl 0x8(%r14),%esi
    2d7e:	49 8b 3f             	mov    (%r15),%rdi
    2d81:	e8 da 0b 00 00       	call   3960 <pow_8bpc_npl>
    2d86:	e9 cb fe ff ff       	jmp    2c56 <process+0x4f6>
    2d8b:	41 0f b6 76 08       	movzbl 0x8(%r14),%esi
    2d90:	49 8b 3f             	mov    (%r15),%rdi
    2d93:	e8 28 1e 00 00       	call   4bc0 <subis_8bpc_npl>
    2d98:	e9 b9 fe ff ff       	jmp    2c56 <process+0x4f6>
    2d9d:	41 0f b6 76 08       	movzbl 0x8(%r14),%esi
    2da2:	49 8b 3f             	mov    (%r15),%rdi
    2da5:	e8 b6 11 00 00       	call   3f60 <subs_8bpc_npl>
    2daa:	e9 a7 fe ff ff       	jmp    2c56 <process+0x4f6>
    2daf:	41 0f b6 76 08       	movzbl 0x8(%r14),%esi
    2db4:	49 8b 3f             	mov    (%r15),%rdi
    2db7:	e8 34 04 00 00       	call   31f0 <adds_8bpc_npl>
    2dbc:	e9 95 fe ff ff       	jmp    2c56 <process+0x4f6>
    2dc1:	41 0f b6 76 08       	movzbl 0x8(%r14),%esi
    2dc6:	49 8b 3f             	mov    (%r15),%rdi
    2dc9:	e8 c2 09 00 00       	call   3790 <divi_8bpc_npl>
    2dce:	e9 83 fe ff ff       	jmp    2c56 <process+0x4f6>
    2dd3:	41 0f b6 76 08       	movzbl 0x8(%r14),%esi
    2dd8:	49 8b 3f             	mov    (%r15),%rdi
    2ddb:	e8 b0 06 00 00       	call   3490 <div_8bpc_npl>
    2de0:	e9 71 fe ff ff       	jmp    2c56 <process+0x4f6>
    2de5:	41 0f b6 76 08       	movzbl 0x8(%r14),%esi
    2dea:	49 8b 3f             	mov    (%r15),%rdi
    2ded:	e8 ce 12 00 00       	call   40c0 <mul_8bpc_npl>
    2df2:	e9 5f fe ff ff       	jmp    2c56 <process+0x4f6>
    2df7:	41 0f b6 76 08       	movzbl 0x8(%r14),%esi
    2dfc:	49 8b 3f             	mov    (%r15),%rdi
    2dff:	e8 3c 05 00 00       	call   3340 <subi_8bpc_npl>
    2e04:	e9 4d fe ff ff       	jmp    2c56 <process+0x4f6>
    2e09:	41 0f b6 76 08       	movzbl 0x8(%r14),%esi
    2e0e:	49 8b 3f             	mov    (%r15),%rdi
    2e11:	e8 ea 0d 00 00       	call   3c00 <sub_8bpc_npl>
    2e16:	e9 3b fe ff ff       	jmp    2c56 <process+0x4f6>
    2e1b:	41 0f b6 76 08       	movzbl 0x8(%r14),%esi
    2e20:	49 8b 3f             	mov    (%r15),%rdi
    2e23:	e8 58 01 00 00       	call   2f80 <add_8bpc_npl>
    2e28:	e9 29 fe ff ff       	jmp    2c56 <process+0x4f6>
    2e2d:	0f 1f 00             	nopl   (%rax)

0000000000002e30 <simd_abs_8bpc_npl>:
    2e30:	48 83 7f 10 00       	cmpq   $0x0,0x10(%rdi)
    2e35:	49 89 f9             	mov    %rdi,%r9
    2e38:	0f 84 97 00 00 00    	je     2ed5 <simd_abs_8bpc_npl+0xa5>
    2e3e:	48 8b 57 08          	mov    0x8(%rdi),%rdx
    2e42:	45 31 d2             	xor    %r10d,%r10d
    2e45:	66 66 2e 0f 1f 84 00 	data16 cs nopw 0x0(%rax,%rax,1)
    2e4c:	00 00 00 00 
    2e50:	49 8b 49 28          	mov    0x28(%r9),%rcx
    2e54:	4a 8d 04 d5 00 00 00 	lea    0x0(,%r10,8),%rax
    2e5b:	00 
    2e5c:	48 8b 34 01          	mov    (%rcx,%rax,1),%rsi
    2e60:	49 8b 49 30          	mov    0x30(%r9),%rcx
    2e64:	48 8b 3c 01          	mov    (%rcx,%rax,1),%rdi
    2e68:	49 8b 49 38          	mov    0x38(%r9),%rcx
    2e6c:	4c 8b 04 01          	mov    (%rcx,%rax,1),%r8
    2e70:	48 89 d1             	mov    %rdx,%rcx
    2e73:	31 c0                	xor    %eax,%eax
    2e75:	48 83 e1 e0          	and    $0xffffffffffffffe0,%rcx
    2e79:	48 83 fa 1f          	cmp    $0x1f,%rdx
    2e7d:	76 44                	jbe    2ec3 <simd_abs_8bpc_npl+0x93>
    2e7f:	90                   	nop
    2e80:	48 83 c0 20          	add    $0x20,%rax
    2e84:	48 39 c8             	cmp    %rcx,%rax
    2e87:	72 f7                	jb     2e80 <simd_abs_8bpc_npl+0x50>
    2e89:	48 39 d0             	cmp    %rdx,%rax
    2e8c:	73 3a                	jae    2ec8 <simd_abs_8bpc_npl+0x98>
    2e8e:	66 90                	xchg   %ax,%ax
    2e90:	0f b6 0c 06          	movzbl (%rsi,%rax,1),%ecx
    2e94:	89 ca                	mov    %ecx,%edx
    2e96:	f6 da                	neg    %dl
    2e98:	0f 48 d1             	cmovs  %ecx,%edx
    2e9b:	88 14 06             	mov    %dl,(%rsi,%rax,1)
    2e9e:	0f b6 0c 07          	movzbl (%rdi,%rax,1),%ecx
    2ea2:	89 ca                	mov    %ecx,%edx
    2ea4:	f6 da                	neg    %dl
    2ea6:	0f 48 d1             	cmovs  %ecx,%edx
    2ea9:	88 14 07             	mov    %dl,(%rdi,%rax,1)
    2eac:	41 0f b6 0c 00       	movzbl (%r8,%rax,1),%ecx
    2eb1:	89 ca                	mov    %ecx,%edx
    2eb3:	f6 da                	neg    %dl
    2eb5:	0f 48 d1             	cmovs  %ecx,%edx
    2eb8:	41 88 14 00          	mov    %dl,(%r8,%rax,1)
    2ebc:	49 8b 51 08          	mov    0x8(%r9),%rdx
    2ec0:	48 ff c0             	inc    %rax
    2ec3:	48 39 d0             	cmp    %rdx,%rax
    2ec6:	72 c8                	jb     2e90 <simd_abs_8bpc_npl+0x60>
    2ec8:	49 ff c2             	inc    %r10
    2ecb:	4d 3b 51 10          	cmp    0x10(%r9),%r10
    2ecf:	0f 82 7b ff ff ff    	jb     2e50 <simd_abs_8bpc_npl+0x20>
    2ed5:	c3                   	ret
    2ed6:	66 2e 0f 1f 84 00 00 	cs nopw 0x0(%rax,%rax,1)
    2edd:	00 00 00 

0000000000002ee0 <abs_8bpc_npl>:
    2ee0:	48 83 7f 10 00       	cmpq   $0x0,0x10(%rdi)
    2ee5:	48 89 fa             	mov    %rdi,%rdx
    2ee8:	0f 84 82 00 00 00    	je     2f70 <abs_8bpc_npl+0x90>
    2eee:	48 8b 4f 08          	mov    0x8(%rdi),%rcx
    2ef2:	45 31 c9             	xor    %r9d,%r9d
    2ef5:	66 66 2e 0f 1f 84 00 	data16 cs nopw 0x0(%rax,%rax,1)
    2efc:	00 00 00 00 
    2f00:	48 85 c9             	test   %rcx,%rcx
    2f03:	74 6b                	je     2f70 <abs_8bpc_npl+0x90>
    2f05:	4a 8d 3c cd 00 00 00 	lea    0x0(,%r9,8),%rdi
    2f0c:	00 
    2f0d:	31 c0                	xor    %eax,%eax
    2f0f:	90                   	nop
    2f10:	48 8b 4a 28          	mov    0x28(%rdx),%rcx
    2f14:	4c 8b 04 39          	mov    (%rcx,%rdi,1),%r8
    2f18:	49 01 c0             	add    %rax,%r8
    2f1b:	41 0f b6 30          	movzbl (%r8),%esi
    2f1f:	89 f1                	mov    %esi,%ecx
    2f21:	f6 d9                	neg    %cl
    2f23:	0f 48 ce             	cmovs  %esi,%ecx
    2f26:	41 88 08             	mov    %cl,(%r8)
    2f29:	48 8b 4a 30          	mov    0x30(%rdx),%rcx
    2f2d:	4c 8b 04 39          	mov    (%rcx,%rdi,1),%r8
    2f31:	49 01 c0             	add    %rax,%r8
    2f34:	41 0f b6 30          	movzbl (%r8),%esi
    2f38:	89 f1                	mov    %esi,%ecx
    2f3a:	f6 d9                	neg    %cl
    2f3c:	0f 48 ce             	cmovs  %esi,%ecx
    2f3f:	41 88 08             	mov    %cl,(%r8)
    2f42:	48 8b 4a 38          	mov    0x38(%rdx),%rcx
    2f46:	4c 8b 04 39          	mov    (%rcx,%rdi,1),%r8
    2f4a:	49 01 c0             	add    %rax,%r8
    2f4d:	41 0f b6 30          	movzbl (%r8),%esi
    2f51:	89 f1                	mov    %esi,%ecx
    2f53:	f6 d9                	neg    %cl
    2f55:	0f 48 ce             	cmovs  %esi,%ecx
    2f58:	48 ff c0             	inc    %rax
    2f5b:	41 88 08             	mov    %cl,(%r8)
    2f5e:	48 8b 4a 08          	mov    0x8(%rdx),%rcx
    2f62:	48 39 c8             	cmp    %rcx,%rax
    2f65:	72 a9                	jb     2f10 <abs_8bpc_npl+0x30>
    2f67:	49 ff c1             	inc    %r9
    2f6a:	4c 3b 4a 10          	cmp    0x10(%rdx),%r9
    2f6e:	72 90                	jb     2f00 <abs_8bpc_npl+0x20>
    2f70:	c3                   	ret
    2f71:	66 2e 0f 1f 84 00 00 	cs nopw 0x0(%rax,%rax,1)
    2f78:	00 00 00 
    2f7b:	0f 1f 44 00 00       	nopl   0x0(%rax,%rax,1)

0000000000002f80 <add_8bpc_npl>:
    2f80:	48 8b 47 10          	mov    0x10(%rdi),%rax
    2f84:	48 89 fa             	mov    %rdi,%rdx
    2f87:	48 85 c0             	test   %rax,%rax
    2f8a:	74 6b                	je     2ff7 <add_8bpc_npl+0x77>
    2f8c:	4c 8b 47 08          	mov    0x8(%rdi),%r8
    2f90:	45 31 c9             	xor    %r9d,%r9d
    2f93:	31 c9                	xor    %ecx,%ecx
    2f95:	66 66 2e 0f 1f 84 00 	data16 cs nopw 0x0(%rax,%rax,1)
    2f9c:	00 00 00 00 
    2fa0:	4d 85 c0             	test   %r8,%r8
    2fa3:	74 5b                	je     3000 <add_8bpc_npl+0x80>
    2fa5:	48 c1 e1 03          	shl    $0x3,%rcx
    2fa9:	31 ff                	xor    %edi,%edi
    2fab:	31 c0                	xor    %eax,%eax
    2fad:	0f 1f 00             	nopl   (%rax)
    2fb0:	4c 8b 42 28          	mov    0x28(%rdx),%r8
    2fb4:	4d 8b 14 08          	mov    (%r8,%rcx,1),%r10
    2fb8:	49 01 c2             	add    %rax,%r10
    2fbb:	41 00 32             	add    %sil,(%r10)
    2fbe:	4c 8b 42 30          	mov    0x30(%rdx),%r8
    2fc2:	4d 8b 1c 08          	mov    (%r8,%rcx,1),%r11
    2fc6:	49 01 c3             	add    %rax,%r11
    2fc9:	41 00 33             	add    %sil,(%r11)
    2fcc:	4c 8b 42 38          	mov    0x38(%rdx),%r8
    2fd0:	49 03 04 08          	add    (%r8,%rcx,1),%rax
    2fd4:	40 00 30             	add    %sil,(%rax)
    2fd7:	8d 47 01             	lea    0x1(%rdi),%eax
    2fda:	4c 8b 42 08          	mov    0x8(%rdx),%r8
    2fde:	48 89 c7             	mov    %rax,%rdi
    2fe1:	4c 39 c0             	cmp    %r8,%rax
    2fe4:	72 ca                	jb     2fb0 <add_8bpc_npl+0x30>
    2fe6:	48 8b 42 10          	mov    0x10(%rdx),%rax
    2fea:	41 8d 49 01          	lea    0x1(%r9),%ecx
    2fee:	49 89 c9             	mov    %rcx,%r9
    2ff1:	48 39 c1             	cmp    %rax,%rcx
    2ff4:	72 aa                	jb     2fa0 <add_8bpc_npl+0x20>
    2ff6:	c3                   	ret
    2ff7:	c3                   	ret
    2ff8:	0f 1f 84 00 00 00 00 	nopl   0x0(%rax,%rax,1)
    2fff:	00 
    3000:	41 8d 51 01          	lea    0x1(%r9),%edx
    3004:	49 89 d1             	mov    %rdx,%r9
    3007:	48 39 c2             	cmp    %rax,%rdx
    300a:	73 eb                	jae    2ff7 <add_8bpc_npl+0x77>
    300c:	41 8d 51 01          	lea    0x1(%r9),%edx
    3010:	49 89 d1             	mov    %rdx,%r9
    3013:	48 39 c2             	cmp    %rax,%rdx
    3016:	72 f4                	jb     300c <add_8bpc_npl+0x8c>
    3018:	c3                   	ret
    3019:	0f 1f 80 00 00 00 00 	nopl   0x0(%rax)

0000000000003020 <simd_min_8bpc_npl>:
    3020:	48 83 7f 10 00       	cmpq   $0x0,0x10(%rdi)
    3025:	49 89 f9             	mov    %rdi,%r9
    3028:	89 f2                	mov    %esi,%edx
    302a:	0f 84 8b 00 00 00    	je     30bb <simd_min_8bpc_npl+0x9b>
    3030:	48 8b 4f 08          	mov    0x8(%rdi),%rcx
    3034:	45 31 db             	xor    %r11d,%r11d
    3037:	66 0f 1f 84 00 00 00 	nopw   0x0(%rax,%rax,1)
    303e:	00 00 
    3040:	49 8b 71 28          	mov    0x28(%r9),%rsi
    3044:	49 8b 79 30          	mov    0x30(%r9),%rdi
    3048:	4a 8d 04 dd 00 00 00 	lea    0x0(,%r11,8),%rax
    304f:	00 
    3050:	49 89 ca             	mov    %rcx,%r10
    3053:	4d 8b 41 38          	mov    0x38(%r9),%r8
    3057:	49 83 e2 e0          	and    $0xffffffffffffffe0,%r10
    305b:	48 8b 34 06          	mov    (%rsi,%rax,1),%rsi
    305f:	48 8b 3c 07          	mov    (%rdi,%rax,1),%rdi
    3063:	4d 8b 04 00          	mov    (%r8,%rax,1),%r8
    3067:	31 c0                	xor    %eax,%eax
    3069:	48 83 f9 1f          	cmp    $0x1f,%rcx
    306d:	76 3e                	jbe    30ad <simd_min_8bpc_npl+0x8d>
    306f:	90                   	nop
    3070:	48 83 c0 20          	add    $0x20,%rax
    3074:	4c 39 d0             	cmp    %r10,%rax
    3077:	72 f7                	jb     3070 <simd_min_8bpc_npl+0x50>
    3079:	48 39 c8             	cmp    %rcx,%rax
    307c:	73 34                	jae    30b2 <simd_min_8bpc_npl+0x92>
    307e:	66 90                	xchg   %ax,%ax
    3080:	0f b6 0c 06          	movzbl (%rsi,%rax,1),%ecx
    3084:	38 d1                	cmp    %dl,%cl
    3086:	0f 47 ca             	cmova  %edx,%ecx
    3089:	88 0c 06             	mov    %cl,(%rsi,%rax,1)
    308c:	0f b6 0c 07          	movzbl (%rdi,%rax,1),%ecx
    3090:	38 d1                	cmp    %dl,%cl
    3092:	0f 47 ca             	cmova  %edx,%ecx
    3095:	88 0c 07             	mov    %cl,(%rdi,%rax,1)
    3098:	41 0f b6 0c 00       	movzbl (%r8,%rax,1),%ecx
    309d:	38 d1                	cmp    %dl,%cl
    309f:	0f 47 ca             	cmova  %edx,%ecx
    30a2:	41 88 0c 00          	mov    %cl,(%r8,%rax,1)
    30a6:	49 8b 49 08          	mov    0x8(%r9),%rcx
    30aa:	48 ff c0             	inc    %rax
    30ad:	48 39 c8             	cmp    %rcx,%rax
    30b0:	72 ce                	jb     3080 <simd_min_8bpc_npl+0x60>
    30b2:	49 ff c3             	inc    %r11
    30b5:	4d 3b 59 10          	cmp    0x10(%r9),%r11
    30b9:	72 85                	jb     3040 <simd_min_8bpc_npl+0x20>
    30bb:	c3                   	ret
    30bc:	0f 1f 40 00          	nopl   0x0(%rax)

00000000000030c0 <min_8bpc_npl>:
    30c0:	48 83 7f 10 00       	cmpq   $0x0,0x10(%rdi)
    30c5:	89 f2                	mov    %esi,%edx
    30c7:	74 71                	je     313a <min_8bpc_npl+0x7a>
    30c9:	48 8b 4f 08          	mov    0x8(%rdi),%rcx
    30cd:	45 31 c9             	xor    %r9d,%r9d
    30d0:	48 85 c9             	test   %rcx,%rcx
    30d3:	74 65                	je     313a <min_8bpc_npl+0x7a>
    30d5:	4a 8d 34 cd 00 00 00 	lea    0x0(,%r9,8),%rsi
    30dc:	00 
    30dd:	31 c0                	xor    %eax,%eax
    30df:	90                   	nop
    30e0:	48 8b 4f 28          	mov    0x28(%rdi),%rcx
    30e4:	4c 8b 04 31          	mov    (%rcx,%rsi,1),%r8
    30e8:	49 01 c0             	add    %rax,%r8
    30eb:	41 0f b6 08          	movzbl (%r8),%ecx
    30ef:	38 d1                	cmp    %dl,%cl
    30f1:	0f 47 ca             	cmova  %edx,%ecx
    30f4:	41 88 08             	mov    %cl,(%r8)
    30f7:	48 8b 4f 30          	mov    0x30(%rdi),%rcx
    30fb:	4c 8b 04 31          	mov    (%rcx,%rsi,1),%r8
    30ff:	49 01 c0             	add    %rax,%r8
    3102:	41 0f b6 08          	movzbl (%r8),%ecx
    3106:	38 d1                	cmp    %dl,%cl
    3108:	0f 47 ca             	cmova  %edx,%ecx
    310b:	41 88 08             	mov    %cl,(%r8)
    310e:	48 8b 4f 38          	mov    0x38(%rdi),%rcx
    3112:	4c 8b 04 31          	mov    (%rcx,%rsi,1),%r8
    3116:	49 01 c0             	add    %rax,%r8
    3119:	41 0f b6 08          	movzbl (%r8),%ecx
    311d:	38 d1                	cmp    %dl,%cl
    311f:	0f 47 ca             	cmova  %edx,%ecx
    3122:	48 ff c0             	inc    %rax
    3125:	41 88 08             	mov    %cl,(%r8)
    3128:	48 8b 4f 08          	mov    0x8(%rdi),%rcx
    312c:	48 39 c8             	cmp    %rcx,%rax
    312f:	72 af                	jb     30e0 <min_8bpc_npl+0x20>
    3131:	49 ff c1             	inc    %r9
    3134:	4c 3b 4f 10          	cmp    0x10(%rdi),%r9
    3138:	72 96                	jb     30d0 <min_8bpc_npl+0x10>
    313a:	c3                   	ret
    313b:	0f 1f 44 00 00       	nopl   0x0(%rax,%rax,1)

0000000000003140 <simd_adds_8bpc_npl>:
    3140:	48 83 7f 10 00       	cmpq   $0x0,0x10(%rdi)
    3145:	49 89 fa             	mov    %rdi,%r10
    3148:	0f 84 9e 00 00 00    	je     31ec <simd_adds_8bpc_npl+0xac>
    314e:	48 8b 57 08          	mov    0x8(%rdi),%rdx
    3152:	45 31 db             	xor    %r11d,%r11d
    3155:	40 0f b6 ce          	movzbl %sil,%ecx
    3159:	0f 1f 80 00 00 00 00 	nopl   0x0(%rax)
    3160:	49 8b 72 28          	mov    0x28(%r10),%rsi
    3164:	4a 8d 04 dd 00 00 00 	lea    0x0(,%r11,8),%rax
    316b:	00 
    316c:	48 8b 3c 06          	mov    (%rsi,%rax,1),%rdi
    3170:	49 8b 72 30          	mov    0x30(%r10),%rsi
    3174:	4c 8b 04 06          	mov    (%rsi,%rax,1),%r8
    3178:	49 8b 72 38          	mov    0x38(%r10),%rsi
    317c:	4c 8b 0c 06          	mov    (%rsi,%rax,1),%r9
    3180:	48 89 d6             	mov    %rdx,%rsi
    3183:	31 c0                	xor    %eax,%eax
    3185:	48 83 e6 e0          	and    $0xffffffffffffffe0,%rsi
    3189:	48 83 fa 1f          	cmp    $0x1f,%rdx
    318d:	76 4b                	jbe    31da <simd_adds_8bpc_npl+0x9a>
    318f:	90                   	nop
    3190:	48 83 c0 20          	add    $0x20,%rax
    3194:	48 39 f0             	cmp    %rsi,%rax
    3197:	72 f7                	jb     3190 <simd_adds_8bpc_npl+0x50>
    3199:	48 39 d0             	cmp    %rdx,%rax
    319c:	73 41                	jae    31df <simd_adds_8bpc_npl+0x9f>
    319e:	66 90                	xchg   %ax,%ax
    31a0:	0f b6 14 07          	movzbl (%rdi,%rax,1),%edx
    31a4:	be ff 00 00 00       	mov    $0xff,%esi
    31a9:	01 ca                	add    %ecx,%edx
    31ab:	39 f2                	cmp    %esi,%edx
    31ad:	0f 4f d6             	cmovg  %esi,%edx
    31b0:	88 14 07             	mov    %dl,(%rdi,%rax,1)
    31b3:	41 0f b6 14 00       	movzbl (%r8,%rax,1),%edx
    31b8:	01 ca                	add    %ecx,%edx
    31ba:	39 f2                	cmp    %esi,%edx
    31bc:	0f 4f d6             	cmovg  %esi,%edx
    31bf:	41 88 14 00          	mov    %dl,(%r8,%rax,1)
    31c3:	41 0f b6 14 01       	movzbl (%r9,%rax,1),%edx
    31c8:	01 ca                	add    %ecx,%edx
    31ca:	39 f2                	cmp    %esi,%edx
    31cc:	0f 4f d6             	cmovg  %esi,%edx
    31cf:	41 88 14 01          	mov    %dl,(%r9,%rax,1)
    31d3:	49 8b 52 08          	mov    0x8(%r10),%rdx
    31d7:	48 ff c0             	inc    %rax
    31da:	48 39 d0             	cmp    %rdx,%rax
    31dd:	72 c1                	jb     31a0 <simd_adds_8bpc_npl+0x60>
    31df:	49 ff c3             	inc    %r11
    31e2:	4d 3b 5a 10          	cmp    0x10(%r10),%r11
    31e6:	0f 82 74 ff ff ff    	jb     3160 <simd_adds_8bpc_npl+0x20>
    31ec:	c3                   	ret
    31ed:	0f 1f 00             	nopl   (%rax)

00000000000031f0 <adds_8bpc_npl>:
    31f0:	48 83 7f 10 00       	cmpq   $0x0,0x10(%rdi)
    31f5:	0f 84 ad 00 00 00    	je     32a8 <adds_8bpc_npl+0xb8>
    31fb:	48 8b 47 08          	mov    0x8(%rdi),%rax
    31ff:	45 31 d2             	xor    %r10d,%r10d
    3202:	44 0f b6 ce          	movzbl %sil,%r9d
    3206:	48 85 c0             	test   %rax,%rax
    3209:	0f 84 9a 00 00 00    	je     32a9 <adds_8bpc_npl+0xb9>
    320f:	53                   	push   %rbx
    3210:	4e 8d 04 d5 00 00 00 	lea    0x0(,%r10,8),%r8
    3217:	00 
    3218:	31 c9                	xor    %ecx,%ecx
    321a:	66 0f 1f 44 00 00    	nopw   0x0(%rax,%rax,1)
    3220:	48 8b 47 28          	mov    0x28(%rdi),%rax
    3224:	bb ff 00 00 00       	mov    $0xff,%ebx
    3229:	4e 8b 1c 00          	mov    (%rax,%r8,1),%r11
    322d:	48 8b 47 30          	mov    0x30(%rdi),%rax
    3231:	4a 8b 04 00          	mov    (%rax,%r8,1),%rax
    3235:	49 01 cb             	add    %rcx,%r11
    3238:	41 0f b6 33          	movzbl (%r11),%esi
    323c:	0f b6 14 08          	movzbl (%rax,%rcx,1),%edx
    3240:	48 8b 47 38          	mov    0x38(%rdi),%rax
    3244:	44 01 ce             	add    %r9d,%esi
    3247:	39 de                	cmp    %ebx,%esi
    3249:	0f 4f f3             	cmovg  %ebx,%esi
    324c:	4a 8b 04 00          	mov    (%rax,%r8,1),%rax
    3250:	44 01 ca             	add    %r9d,%edx
    3253:	0f b6 04 08          	movzbl (%rax,%rcx,1),%eax
    3257:	41 88 33             	mov    %sil,(%r11)
    325a:	48 8b 77 30          	mov    0x30(%rdi),%rsi
    325e:	4e 8b 1c 06          	mov    (%rsi,%r8,1),%r11
    3262:	be ff 00 00 00       	mov    $0xff,%esi
    3267:	39 f2                	cmp    %esi,%edx
    3269:	0f 4f d6             	cmovg  %esi,%edx
    326c:	44 01 c8             	add    %r9d,%eax
    326f:	41 88 14 0b          	mov    %dl,(%r11,%rcx,1)
    3273:	48 8b 57 38          	mov    0x38(%rdi),%rdx
    3277:	4a 8b 34 02          	mov    (%rdx,%r8,1),%rsi
    327b:	ba ff 00 00 00       	mov    $0xff,%edx
    3280:	39 d0                	cmp    %edx,%eax
    3282:	0f 4f c2             	cmovg  %edx,%eax
    3285:	88 04 0e             	mov    %al,(%rsi,%rcx,1)
    3288:	48 8b 47 08          	mov    0x8(%rdi),%rax
    328c:	48 ff c1             	inc    %rcx
    328f:	48 39 c1             	cmp    %rax,%rcx
    3292:	72 8c                	jb     3220 <adds_8bpc_npl+0x30>
    3294:	49 ff c2             	inc    %r10
    3297:	4c 3b 57 10          	cmp    0x10(%rdi),%r10
    329b:	73 09                	jae    32a6 <adds_8bpc_npl+0xb6>
    329d:	48 85 c0             	test   %rax,%rax
    32a0:	0f 85 6a ff ff ff    	jne    3210 <adds_8bpc_npl+0x20>
    32a6:	5b                   	pop    %rbx
    32a7:	c3                   	ret
    32a8:	c3                   	ret
    32a9:	c3                   	ret
    32aa:	66 0f 1f 44 00 00    	nopw   0x0(%rax,%rax,1)

00000000000032b0 <simd_subi_8bpc_npl>:
    32b0:	48 83 7f 10 00       	cmpq   $0x0,0x10(%rdi)
    32b5:	49 89 f9             	mov    %rdi,%r9
    32b8:	89 f2                	mov    %esi,%edx
    32ba:	0f 84 7f 00 00 00    	je     333f <simd_subi_8bpc_npl+0x8f>
    32c0:	48 8b 4f 08          	mov    0x8(%rdi),%rcx
    32c4:	45 31 db             	xor    %r11d,%r11d
    32c7:	66 0f 1f 84 00 00 00 	nopw   0x0(%rax,%rax,1)
    32ce:	00 00 
    32d0:	49 8b 71 28          	mov    0x28(%r9),%rsi
    32d4:	49 8b 79 30          	mov    0x30(%r9),%rdi
    32d8:	4a 8d 04 dd 00 00 00 	lea    0x0(,%r11,8),%rax
    32df:	00 
    32e0:	49 89 ca             	mov    %rcx,%r10
    32e3:	4d 8b 41 38          	mov    0x38(%r9),%r8
    32e7:	49 83 e2 e0          	and    $0xffffffffffffffe0,%r10
    32eb:	48 8b 34 06          	mov    (%rsi,%rax,1),%rsi
    32ef:	48 8b 3c 07          	mov    (%rdi,%rax,1),%rdi
    32f3:	4d 8b 04 00          	mov    (%r8,%rax,1),%r8
    32f7:	31 c0                	xor    %eax,%eax
    32f9:	48 83 f9 1f          	cmp    $0x1f,%rcx
    32fd:	76 32                	jbe    3331 <simd_subi_8bpc_npl+0x81>
    32ff:	90                   	nop
    3300:	48 83 c0 20          	add    $0x20,%rax
    3304:	4c 39 d0             	cmp    %r10,%rax
    3307:	72 f7                	jb     3300 <simd_subi_8bpc_npl+0x50>
    3309:	48 39 c8             	cmp    %rcx,%rax
    330c:	73 28                	jae    3336 <simd_subi_8bpc_npl+0x86>
    330e:	66 90                	xchg   %ax,%ax
    3310:	89 d1                	mov    %edx,%ecx
    3312:	2a 0c 06             	sub    (%rsi,%rax,1),%cl
    3315:	88 0c 06             	mov    %cl,(%rsi,%rax,1)
    3318:	89 d1                	mov    %edx,%ecx
    331a:	2a 0c 07             	sub    (%rdi,%rax,1),%cl
    331d:	88 0c 07             	mov    %cl,(%rdi,%rax,1)
    3320:	89 d1                	mov    %edx,%ecx
    3322:	41 2a 0c 00          	sub    (%r8,%rax,1),%cl
    3326:	41 88 0c 00          	mov    %cl,(%r8,%rax,1)
    332a:	49 8b 49 08          	mov    0x8(%r9),%rcx
    332e:	48 ff c0             	inc    %rax
    3331:	48 39 c8             	cmp    %rcx,%rax
    3334:	72 da                	jb     3310 <simd_subi_8bpc_npl+0x60>
    3336:	49 ff c3             	inc    %r11
    3339:	4d 3b 59 10          	cmp    0x10(%r9),%r11
    333d:	72 91                	jb     32d0 <simd_subi_8bpc_npl+0x20>
    333f:	c3                   	ret

0000000000003340 <subi_8bpc_npl>:
    3340:	48 89 fa             	mov    %rdi,%rdx
    3343:	89 f7                	mov    %esi,%edi
    3345:	48 8b 42 10          	mov    0x10(%rdx),%rax
    3349:	48 85 c0             	test   %rax,%rax
    334c:	74 7b                	je     33c9 <subi_8bpc_npl+0x89>
    334e:	4c 8b 42 08          	mov    0x8(%rdx),%r8
    3352:	45 31 d2             	xor    %r10d,%r10d
    3355:	31 c9                	xor    %ecx,%ecx
    3357:	66 0f 1f 84 00 00 00 	nopw   0x0(%rax,%rax,1)
    335e:	00 00 
    3360:	4d 85 c0             	test   %r8,%r8
    3363:	74 6b                	je     33d0 <subi_8bpc_npl+0x90>
    3365:	48 c1 e1 03          	shl    $0x3,%rcx
    3369:	31 f6                	xor    %esi,%esi
    336b:	31 c0                	xor    %eax,%eax
    336d:	0f 1f 00             	nopl   (%rax)
    3370:	4c 8b 42 28          	mov    0x28(%rdx),%r8
    3374:	41 89 f9             	mov    %edi,%r9d
    3377:	4d 8b 1c 08          	mov    (%r8,%rcx,1),%r11
    337b:	49 01 c3             	add    %rax,%r11
    337e:	45 2a 0b             	sub    (%r11),%r9b
    3381:	45 88 0b             	mov    %r9b,(%r11)
    3384:	4c 8b 42 30          	mov    0x30(%rdx),%r8
    3388:	41 89 f9             	mov    %edi,%r9d
    338b:	4d 8b 1c 08          	mov    (%r8,%rcx,1),%r11
    338f:	49 01 c3             	add    %rax,%r11
    3392:	45 2a 0b             	sub    (%r11),%r9b
    3395:	45 88 0b             	mov    %r9b,(%r11)
    3398:	4c 8b 42 38          	mov    0x38(%rdx),%r8
    339c:	49 03 04 08          	add    (%r8,%rcx,1),%rax
    33a0:	41 89 f8             	mov    %edi,%r8d
    33a3:	44 2a 00             	sub    (%rax),%r8b
    33a6:	44 88 00             	mov    %r8b,(%rax)
    33a9:	4c 8b 42 08          	mov    0x8(%rdx),%r8
    33ad:	8d 46 01             	lea    0x1(%rsi),%eax
    33b0:	48 89 c6             	mov    %rax,%rsi
    33b3:	4c 39 c0             	cmp    %r8,%rax
    33b6:	72 b8                	jb     3370 <subi_8bpc_npl+0x30>
    33b8:	48 8b 42 10          	mov    0x10(%rdx),%rax
    33bc:	41 8d 4a 01          	lea    0x1(%r10),%ecx
    33c0:	49 89 ca             	mov    %rcx,%r10
    33c3:	48 39 c1             	cmp    %rax,%rcx
    33c6:	72 98                	jb     3360 <subi_8bpc_npl+0x20>
    33c8:	c3                   	ret
    33c9:	c3                   	ret
    33ca:	66 0f 1f 44 00 00    	nopw   0x0(%rax,%rax,1)
    33d0:	41 8d 52 01          	lea    0x1(%r10),%edx
    33d4:	49 89 d2             	mov    %rdx,%r10
    33d7:	48 39 c2             	cmp    %rax,%rdx
    33da:	73 ed                	jae    33c9 <subi_8bpc_npl+0x89>
    33dc:	41 8d 52 01          	lea    0x1(%r10),%edx
    33e0:	49 89 d2             	mov    %rdx,%r10
    33e3:	48 39 c2             	cmp    %rax,%rdx
    33e6:	72 f4                	jb     33dc <subi_8bpc_npl+0x9c>
    33e8:	c3                   	ret
    33e9:	0f 1f 80 00 00 00 00 	nopl   0x0(%rax)

00000000000033f0 <simd_div_8bpc_npl>:
    33f0:	48 83 7f 10 00       	cmpq   $0x0,0x10(%rdi)
    33f5:	49 89 f9             	mov    %rdi,%r9
    33f8:	89 f1                	mov    %esi,%ecx
    33fa:	0f 84 82 00 00 00    	je     3482 <simd_div_8bpc_npl+0x92>
    3400:	48 8b 47 08          	mov    0x8(%rdi),%rax
    3404:	45 31 d2             	xor    %r10d,%r10d
    3407:	66 0f 1f 84 00 00 00 	nopw   0x0(%rax,%rax,1)
    340e:	00 00 
    3410:	49 8b 71 28          	mov    0x28(%r9),%rsi
    3414:	49 8b 79 30          	mov    0x30(%r9),%rdi
    3418:	4a 8d 14 d5 00 00 00 	lea    0x0(,%r10,8),%rdx
    341f:	00 
    3420:	49 89 c3             	mov    %rax,%r11
    3423:	4d 8b 41 38          	mov    0x38(%r9),%r8
    3427:	49 83 e3 e0          	and    $0xffffffffffffffe0,%r11
    342b:	48 8b 34 16          	mov    (%rsi,%rdx,1),%rsi
    342f:	48 8b 3c 17          	mov    (%rdi,%rdx,1),%rdi
    3433:	4d 8b 04 10          	mov    (%r8,%rdx,1),%r8
    3437:	31 d2                	xor    %edx,%edx
    3439:	48 83 f8 1f          	cmp    $0x1f,%rax
    343d:	76 35                	jbe    3474 <simd_div_8bpc_npl+0x84>
    343f:	90                   	nop
    3440:	48 83 c2 20          	add    $0x20,%rdx
    3444:	4c 39 da             	cmp    %r11,%rdx
    3447:	72 f7                	jb     3440 <simd_div_8bpc_npl+0x50>
    3449:	48 39 c2             	cmp    %rax,%rdx
    344c:	73 2b                	jae    3479 <simd_div_8bpc_npl+0x89>
    344e:	66 90                	xchg   %ax,%ax
    3450:	0f b6 04 16          	movzbl (%rsi,%rdx,1),%eax
    3454:	f6 f1                	div    %cl
    3456:	88 04 16             	mov    %al,(%rsi,%rdx,1)
    3459:	0f b6 04 17          	movzbl (%rdi,%rdx,1),%eax
    345d:	f6 f1                	div    %cl
    345f:	88 04 17             	mov    %al,(%rdi,%rdx,1)
    3462:	41 0f b6 04 10       	movzbl (%r8,%rdx,1),%eax
    3467:	f6 f1                	div    %cl
    3469:	41 88 04 10          	mov    %al,(%r8,%rdx,1)
    346d:	49 8b 41 08          	mov    0x8(%r9),%rax
    3471:	48 ff c2             	inc    %rdx
    3474:	48 39 c2             	cmp    %rax,%rdx
    3477:	72 d7                	jb     3450 <simd_div_8bpc_npl+0x60>
    3479:	49 ff c2             	inc    %r10
    347c:	4d 3b 51 10          	cmp    0x10(%r9),%r10
    3480:	72 8e                	jb     3410 <simd_div_8bpc_npl+0x20>
    3482:	c3                   	ret
    3483:	66 66 2e 0f 1f 84 00 	data16 cs nopw 0x0(%rax,%rax,1)
    348a:	00 00 00 00 
    348e:	66 90                	xchg   %ax,%ax

0000000000003490 <div_8bpc_npl>:
    3490:	48 83 7f 10 00       	cmpq   $0x0,0x10(%rdi)
    3495:	89 f1                	mov    %esi,%ecx
    3497:	74 68                	je     3501 <div_8bpc_npl+0x71>
    3499:	48 8b 47 08          	mov    0x8(%rdi),%rax
    349d:	45 31 c9             	xor    %r9d,%r9d
    34a0:	48 85 c0             	test   %rax,%rax
    34a3:	74 5c                	je     3501 <div_8bpc_npl+0x71>
    34a5:	4a 8d 34 cd 00 00 00 	lea    0x0(,%r9,8),%rsi
    34ac:	00 
    34ad:	31 d2                	xor    %edx,%edx
    34af:	90                   	nop
    34b0:	48 8b 47 28          	mov    0x28(%rdi),%rax
    34b4:	4c 8b 04 30          	mov    (%rax,%rsi,1),%r8
    34b8:	49 01 d0             	add    %rdx,%r8
    34bb:	41 0f b6 00          	movzbl (%r8),%eax
    34bf:	f6 f1                	div    %cl
    34c1:	41 88 00             	mov    %al,(%r8)
    34c4:	48 8b 47 30          	mov    0x30(%rdi),%rax
    34c8:	4c 8b 04 30          	mov    (%rax,%rsi,1),%r8
    34cc:	49 01 d0             	add    %rdx,%r8
    34cf:	41 0f b6 00          	movzbl (%r8),%eax
    34d3:	f6 f1                	div    %cl
    34d5:	41 88 00             	mov    %al,(%r8)
    34d8:	48 8b 47 38          	mov    0x38(%rdi),%rax
    34dc:	4c 8b 04 30          	mov    (%rax,%rsi,1),%r8
    34e0:	49 01 d0             	add    %rdx,%r8
    34e3:	48 ff c2             	inc    %rdx
    34e6:	41 0f b6 00          	movzbl (%r8),%eax
    34ea:	f6 f1                	div    %cl
    34ec:	41 88 00             	mov    %al,(%r8)
    34ef:	48 8b 47 08          	mov    0x8(%rdi),%rax
    34f3:	48 39 c2             	cmp    %rax,%rdx
    34f6:	72 b8                	jb     34b0 <div_8bpc_npl+0x20>
    34f8:	49 ff c1             	inc    %r9
    34fb:	4c 3b 4f 10          	cmp    0x10(%rdi),%r9
    34ff:	72 9f                	jb     34a0 <div_8bpc_npl+0x10>
    3501:	c3                   	ret
    3502:	66 2e 0f 1f 84 00 00 	cs nopw 0x0(%rax,%rax,1)
    3509:	00 00 00 
    350c:	0f 1f 40 00          	nopl   0x0(%rax)

0000000000003510 <simd_gs_8bpc_npl>:
    3510:	48 83 7f 10 00       	cmpq   $0x0,0x10(%rdi)
    3515:	49 89 f8             	mov    %rdi,%r8
    3518:	0f 84 be 00 00 00    	je     35dc <simd_gs_8bpc_npl+0xcc>
    351e:	c5 fa 10 2d 26 3b 03 	vmovss 0x33b26(%rip),%xmm5        # 3704c <_IO_stdin_used+0x4c>
    3525:	00 
    3526:	c5 fa 10 25 22 3b 03 	vmovss 0x33b22(%rip),%xmm4        # 37050 <_IO_stdin_used+0x50>
    352d:	00 
    352e:	c5 e8 57 d2          	vxorps %xmm2,%xmm2,%xmm2
    3532:	45 31 c9             	xor    %r9d,%r9d
    3535:	c5 fa 10 1d 17 3b 03 	vmovss 0x33b17(%rip),%xmm3        # 37054 <_IO_stdin_used+0x54>
    353c:	00 
    353d:	48 8b 57 08          	mov    0x8(%rdi),%rdx
    3541:	66 66 2e 0f 1f 84 00 	data16 cs nopw 0x0(%rax,%rax,1)
    3548:	00 00 00 00 
    354c:	0f 1f 40 00          	nopl   0x0(%rax)
    3550:	49 8b 48 28          	mov    0x28(%r8),%rcx
    3554:	49 8b 70 30          	mov    0x30(%r8),%rsi
    3558:	4a 8d 04 cd 00 00 00 	lea    0x0(,%r9,8),%rax
    355f:	00 
    3560:	49 89 d2             	mov    %rdx,%r10
    3563:	49 8b 78 38          	mov    0x38(%r8),%rdi
    3567:	49 83 e2 e0          	and    $0xffffffffffffffe0,%r10
    356b:	48 8b 0c 01          	mov    (%rcx,%rax,1),%rcx
    356f:	48 8b 34 06          	mov    (%rsi,%rax,1),%rsi
    3573:	48 8b 3c 07          	mov    (%rdi,%rax,1),%rdi
    3577:	31 c0                	xor    %eax,%eax
    3579:	48 83 fa 1f          	cmp    $0x1f,%rdx
    357d:	76 4b                	jbe    35ca <simd_gs_8bpc_npl+0xba>
    357f:	90                   	nop
    3580:	48 83 c0 20          	add    $0x20,%rax
    3584:	4c 39 d0             	cmp    %r10,%rax
    3587:	72 f7                	jb     3580 <simd_gs_8bpc_npl+0x70>
    3589:	48 39 d0             	cmp    %rdx,%rax
    358c:	73 41                	jae    35cf <simd_gs_8bpc_npl+0xbf>
    358e:	66 90                	xchg   %ax,%ax
    3590:	0f b6 14 01          	movzbl (%rcx,%rax,1),%edx
    3594:	c5 ea 2a c2          	vcvtsi2ss %edx,%xmm2,%xmm0
    3598:	0f b6 14 06          	movzbl (%rsi,%rax,1),%edx
    359c:	c5 ea 2a ca          	vcvtsi2ss %edx,%xmm2,%xmm1
    35a0:	c5 f2 59 cd          	vmulss %xmm5,%xmm1,%xmm1
    35a4:	0f b6 14 07          	movzbl (%rdi,%rax,1),%edx
    35a8:	c4 e2 79 b9 cc       	vfmadd231ss %xmm4,%xmm0,%xmm1
    35ad:	c5 ea 2a c2          	vcvtsi2ss %edx,%xmm2,%xmm0
    35b1:	c4 e2 71 99 c3       	vfmadd132ss %xmm3,%xmm1,%xmm0
    35b6:	c5 fa 2c d0          	vcvttss2si %xmm0,%edx
    35ba:	88 14 07             	mov    %dl,(%rdi,%rax,1)
    35bd:	88 14 06             	mov    %dl,(%rsi,%rax,1)
    35c0:	88 14 01             	mov    %dl,(%rcx,%rax,1)
    35c3:	48 ff c0             	inc    %rax
    35c6:	49 8b 50 08          	mov    0x8(%r8),%rdx
    35ca:	48 39 d0             	cmp    %rdx,%rax
    35cd:	72 c1                	jb     3590 <simd_gs_8bpc_npl+0x80>
    35cf:	49 ff c1             	inc    %r9
    35d2:	4d 3b 48 10          	cmp    0x10(%r8),%r9
    35d6:	0f 82 74 ff ff ff    	jb     3550 <simd_gs_8bpc_npl+0x40>
    35dc:	c3                   	ret
    35dd:	0f 1f 00             	nopl   (%rax)

00000000000035e0 <gs_8bpc_npl>:
    35e0:	48 83 7f 10 00       	cmpq   $0x0,0x10(%rdi)
    35e5:	48 89 fa             	mov    %rdi,%rdx
    35e8:	0f 84 ca 00 00 00    	je     36b8 <gs_8bpc_npl+0xd8>
    35ee:	c5 fa 10 2d 56 3a 03 	vmovss 0x33a56(%rip),%xmm5        # 3704c <_IO_stdin_used+0x4c>
    35f5:	00 
    35f6:	c5 fa 10 25 52 3a 03 	vmovss 0x33a52(%rip),%xmm4        # 37050 <_IO_stdin_used+0x50>
    35fd:	00 
    35fe:	c5 e8 57 d2          	vxorps %xmm2,%xmm2,%xmm2
    3602:	45 31 c0             	xor    %r8d,%r8d
    3605:	c5 fa 10 1d 47 3a 03 	vmovss 0x33a47(%rip),%xmm3        # 37054 <_IO_stdin_used+0x54>
    360c:	00 
    360d:	48 8b 77 08          	mov    0x8(%rdi),%rsi
    3611:	66 66 2e 0f 1f 84 00 	data16 cs nopw 0x0(%rax,%rax,1)
    3618:	00 00 00 00 
    361c:	0f 1f 40 00          	nopl   0x0(%rax)
    3620:	48 85 f6             	test   %rsi,%rsi
    3623:	0f 84 8f 00 00 00    	je     36b8 <gs_8bpc_npl+0xd8>
    3629:	4a 8d 0c c5 00 00 00 	lea    0x0(,%r8,8),%rcx
    3630:	00 
    3631:	31 c0                	xor    %eax,%eax
    3633:	66 66 2e 0f 1f 84 00 	data16 cs nopw 0x0(%rax,%rax,1)
    363a:	00 00 00 00 
    363e:	66 90                	xchg   %ax,%ax
    3640:	48 8b 72 28          	mov    0x28(%rdx),%rsi
    3644:	48 8b 3c 0e          	mov    (%rsi,%rcx,1),%rdi
    3648:	48 01 c7             	add    %rax,%rdi
    364b:	0f b6 37             	movzbl (%rdi),%esi
    364e:	c5 ea 2a c6          	vcvtsi2ss %esi,%xmm2,%xmm0
    3652:	48 8b 72 30          	mov    0x30(%rdx),%rsi
    3656:	48 8b 34 0e          	mov    (%rsi,%rcx,1),%rsi
    365a:	0f b6 34 06          	movzbl (%rsi,%rax,1),%esi
    365e:	c5 ea 2a ce          	vcvtsi2ss %esi,%xmm2,%xmm1
    3662:	48 8b 72 38          	mov    0x38(%rdx),%rsi
    3666:	c5 f2 59 cd          	vmulss %xmm5,%xmm1,%xmm1
    366a:	c4 e2 79 b9 cc       	vfmadd231ss %xmm4,%xmm0,%xmm1
    366f:	48 8b 34 0e          	mov    (%rsi,%rcx,1),%rsi
    3673:	0f b6 34 06          	movzbl (%rsi,%rax,1),%esi
    3677:	c5 ea 2a c6          	vcvtsi2ss %esi,%xmm2,%xmm0
    367b:	c4 e2 71 99 c3       	vfmadd132ss %xmm3,%xmm1,%xmm0
    3680:	c5 fa 2c f0          	vcvttss2si %xmm0,%esi
    3684:	40 88 37             	mov    %sil,(%rdi)
    3687:	48 8b 7a 30          	mov    0x30(%rdx),%rdi
    368b:	48 8b 3c 0f          	mov    (%rdi,%rcx,1),%rdi
    368f:	40 88 34 07          	mov    %sil,(%rdi,%rax,1)
    3693:	48 8b 7a 38          	mov    0x38(%rdx),%rdi
    3697:	48 8b 3c 0f          	mov    (%rdi,%rcx,1),%rdi
    369b:	40 88 34 07          	mov    %sil,(%rdi,%rax,1)
    369f:	48 8b 72 08          	mov    0x8(%rdx),%rsi
    36a3:	48 ff c0             	inc    %rax
    36a6:	48 39 f0             	cmp    %rsi,%rax
    36a9:	72 95                	jb     3640 <gs_8bpc_npl+0x60>
    36ab:	49 ff c0             	inc    %r8
    36ae:	4c 3b 42 10          	cmp    0x10(%rdx),%r8
    36b2:	0f 82 68 ff ff ff    	jb     3620 <gs_8bpc_npl+0x40>
    36b8:	c3                   	ret
    36b9:	0f 1f 80 00 00 00 00 	nopl   0x0(%rax)

00000000000036c0 <simd_divi_8bpc_npl>:
    36c0:	48 83 7f 10 00       	cmpq   $0x0,0x10(%rdi)
    36c5:	49 89 fa             	mov    %rdi,%r10
    36c8:	0f 84 a5 00 00 00    	je     3773 <simd_divi_8bpc_npl+0xb3>
    36ce:	48 8b 47 08          	mov    0x8(%rdi),%rax
    36d2:	45 31 db             	xor    %r11d,%r11d
    36d5:	40 0f b6 f6          	movzbl %sil,%esi
    36d9:	0f 1f 80 00 00 00 00 	nopl   0x0(%rax)
    36e0:	49 8b 4a 28          	mov    0x28(%r10),%rcx
    36e4:	4a 8d 14 dd 00 00 00 	lea    0x0(,%r11,8),%rdx
    36eb:	00 
    36ec:	48 8b 3c 11          	mov    (%rcx,%rdx,1),%rdi
    36f0:	49 8b 4a 30          	mov    0x30(%r10),%rcx
    36f4:	4c 8b 04 11          	mov    (%rcx,%rdx,1),%r8
    36f8:	49 8b 4a 38          	mov    0x38(%r10),%rcx
    36fc:	4c 8b 0c 11          	mov    (%rcx,%rdx,1),%r9
    3700:	48 89 c1             	mov    %rax,%rcx
    3703:	31 d2                	xor    %edx,%edx
    3705:	48 83 e1 e0          	and    $0xffffffffffffffe0,%rcx
    3709:	48 83 f8 1f          	cmp    $0x1f,%rax
    370d:	76 11                	jbe    3720 <simd_divi_8bpc_npl+0x60>
    370f:	90                   	nop
    3710:	48 83 c2 20          	add    $0x20,%rdx
    3714:	48 39 ca             	cmp    %rcx,%rdx
    3717:	72 f7                	jb     3710 <simd_divi_8bpc_npl+0x50>
    3719:	0f 1f 80 00 00 00 00 	nopl   0x0(%rax)
    3720:	48 39 c2             	cmp    %rax,%rdx
    3723:	73 41                	jae    3766 <simd_divi_8bpc_npl+0xa6>
    3725:	0f b6 0c 17          	movzbl (%rdi,%rdx,1),%ecx
    3729:	84 c9                	test   %cl,%cl
    372b:	74 06                	je     3733 <simd_divi_8bpc_npl+0x73>
    372d:	89 f0                	mov    %esi,%eax
    372f:	f6 f1                	div    %cl
    3731:	89 c1                	mov    %eax,%ecx
    3733:	88 0c 17             	mov    %cl,(%rdi,%rdx,1)
    3736:	41 0f b6 0c 10       	movzbl (%r8,%rdx,1),%ecx
    373b:	84 c9                	test   %cl,%cl
    373d:	74 06                	je     3745 <simd_divi_8bpc_npl+0x85>
    373f:	89 f0                	mov    %esi,%eax
    3741:	f6 f1                	div    %cl
    3743:	89 c1                	mov    %eax,%ecx
    3745:	41 88 0c 10          	mov    %cl,(%r8,%rdx,1)
    3749:	41 0f b6 0c 11       	movzbl (%r9,%rdx,1),%ecx
    374e:	84 c9                	test   %cl,%cl
    3750:	74 2e                	je     3780 <simd_divi_8bpc_npl+0xc0>
    3752:	89 f0                	mov    %esi,%eax
    3754:	f6 f1                	div    %cl
    3756:	41 88 04 11          	mov    %al,(%r9,%rdx,1)
    375a:	49 8b 42 08          	mov    0x8(%r10),%rax
    375e:	48 ff c2             	inc    %rdx
    3761:	48 39 c2             	cmp    %rax,%rdx
    3764:	72 bf                	jb     3725 <simd_divi_8bpc_npl+0x65>
    3766:	49 ff c3             	inc    %r11
    3769:	4d 3b 5a 10          	cmp    0x10(%r10),%r11
    376d:	0f 82 6d ff ff ff    	jb     36e0 <simd_divi_8bpc_npl+0x20>
    3773:	c3                   	ret
    3774:	66 66 2e 0f 1f 84 00 	data16 cs nopw 0x0(%rax,%rax,1)
    377b:	00 00 00 00 
    377f:	90                   	nop
    3780:	49 8b 42 08          	mov    0x8(%r10),%rax
    3784:	48 ff c2             	inc    %rdx
    3787:	eb 97                	jmp    3720 <simd_divi_8bpc_npl+0x60>
    3789:	0f 1f 80 00 00 00 00 	nopl   0x0(%rax)

0000000000003790 <divi_8bpc_npl>:
    3790:	48 83 7f 10 00       	cmpq   $0x0,0x10(%rdi)
    3795:	0f 84 8f 00 00 00    	je     382a <divi_8bpc_npl+0x9a>
    379b:	48 8b 47 08          	mov    0x8(%rdi),%rax
    379f:	45 31 d2             	xor    %r10d,%r10d
    37a2:	44 0f b6 c6          	movzbl %sil,%r8d
    37a6:	66 2e 0f 1f 84 00 00 	cs nopw 0x0(%rax,%rax,1)
    37ad:	00 00 00 
    37b0:	48 85 c0             	test   %rax,%rax
    37b3:	74 75                	je     382a <divi_8bpc_npl+0x9a>
    37b5:	4a 8d 34 d5 00 00 00 	lea    0x0(,%r10,8),%rsi
    37bc:	00 
    37bd:	31 d2                	xor    %edx,%edx
    37bf:	90                   	nop
    37c0:	48 8b 47 28          	mov    0x28(%rdi),%rax
    37c4:	4c 8b 0c 30          	mov    (%rax,%rsi,1),%r9
    37c8:	49 01 d1             	add    %rdx,%r9
    37cb:	41 0f b6 09          	movzbl (%r9),%ecx
    37cf:	84 c9                	test   %cl,%cl
    37d1:	74 07                	je     37da <divi_8bpc_npl+0x4a>
    37d3:	44 89 c0             	mov    %r8d,%eax
    37d6:	f6 f1                	div    %cl
    37d8:	89 c1                	mov    %eax,%ecx
    37da:	41 88 09             	mov    %cl,(%r9)
    37dd:	48 8b 47 30          	mov    0x30(%rdi),%rax
    37e1:	4c 8b 0c 30          	mov    (%rax,%rsi,1),%r9
    37e5:	49 01 d1             	add    %rdx,%r9
    37e8:	41 0f b6 09          	movzbl (%r9),%ecx
    37ec:	84 c9                	test   %cl,%cl
    37ee:	74 07                	je     37f7 <divi_8bpc_npl+0x67>
    37f0:	44 89 c0             	mov    %r8d,%eax
    37f3:	f6 f1                	div    %cl
    37f5:	89 c1                	mov    %eax,%ecx
    37f7:	41 88 09             	mov    %cl,(%r9)
    37fa:	48 8b 47 38          	mov    0x38(%rdi),%rax
    37fe:	4c 8b 0c 30          	mov    (%rax,%rsi,1),%r9
    3802:	49 01 d1             	add    %rdx,%r9
    3805:	41 0f b6 09          	movzbl (%r9),%ecx
    3809:	84 c9                	test   %cl,%cl
    380b:	74 23                	je     3830 <divi_8bpc_npl+0xa0>
    380d:	44 89 c0             	mov    %r8d,%eax
    3810:	48 ff c2             	inc    %rdx
    3813:	f6 f1                	div    %cl
    3815:	41 88 01             	mov    %al,(%r9)
    3818:	48 8b 47 08          	mov    0x8(%rdi),%rax
    381c:	48 39 c2             	cmp    %rax,%rdx
    381f:	72 9f                	jb     37c0 <divi_8bpc_npl+0x30>
    3821:	49 ff c2             	inc    %r10
    3824:	4c 3b 57 10          	cmp    0x10(%rdi),%r10
    3828:	72 86                	jb     37b0 <divi_8bpc_npl+0x20>
    382a:	c3                   	ret
    382b:	0f 1f 44 00 00       	nopl   0x0(%rax,%rax,1)
    3830:	48 8b 47 08          	mov    0x8(%rdi),%rax
    3834:	48 ff c2             	inc    %rdx
    3837:	48 39 c2             	cmp    %rax,%rdx
    383a:	72 84                	jb     37c0 <divi_8bpc_npl+0x30>
    383c:	49 ff c2             	inc    %r10
    383f:	4c 3b 57 10          	cmp    0x10(%rdi),%r10
    3843:	0f 82 67 ff ff ff    	jb     37b0 <divi_8bpc_npl+0x20>
    3849:	eb df                	jmp    382a <divi_8bpc_npl+0x9a>
    384b:	0f 1f 44 00 00       	nopl   0x0(%rax,%rax,1)

0000000000003850 <simd_pow_8bpc_npl>:
    3850:	48 83 7f 10 00       	cmpq   $0x0,0x10(%rdi)
    3855:	0f 84 01 01 00 00    	je     395c <simd_pow_8bpc_npl+0x10c>
    385b:	41 57                	push   %r15
    385d:	41 56                	push   %r14
    385f:	40 0f b6 c6          	movzbl %sil,%eax
    3863:	45 31 f6             	xor    %r14d,%r14d
    3866:	41 55                	push   %r13
    3868:	41 54                	push   %r12
    386a:	49 89 fd             	mov    %rdi,%r13
    386d:	55                   	push   %rbp
    386e:	53                   	push   %rbx
    386f:	48 83 ec 18          	sub    $0x18,%rsp
    3873:	48 8b 57 08          	mov    0x8(%rdi),%rdx
    3877:	89 44 24 0c          	mov    %eax,0xc(%rsp)
    387b:	0f 1f 44 00 00       	nopl   0x0(%rax,%rax,1)
    3880:	49 8b 4d 28          	mov    0x28(%r13),%rcx
    3884:	4a 8d 04 f5 00 00 00 	lea    0x0(,%r14,8),%rax
    388b:	00 
    388c:	45 31 ff             	xor    %r15d,%r15d
    388f:	48 8b 1c 01          	mov    (%rcx,%rax,1),%rbx
    3893:	49 8b 4d 30          	mov    0x30(%r13),%rcx
    3897:	48 8b 2c 01          	mov    (%rcx,%rax,1),%rbp
    389b:	49 8b 4d 38          	mov    0x38(%r13),%rcx
    389f:	4c 8b 24 01          	mov    (%rcx,%rax,1),%r12
    38a3:	48 89 d1             	mov    %rdx,%rcx
    38a6:	48 83 e1 e0          	and    $0xffffffffffffffe0,%rcx
    38aa:	48 83 fa 1f          	cmp    $0x1f,%rdx
    38ae:	76 09                	jbe    38b9 <simd_pow_8bpc_npl+0x69>
    38b0:	49 83 c7 20          	add    $0x20,%r15
    38b4:	49 39 cf             	cmp    %rcx,%r15
    38b7:	72 f7                	jb     38b0 <simd_pow_8bpc_npl+0x60>
    38b9:	49 39 d7             	cmp    %rdx,%r15
    38bc:	0f 83 7e 00 00 00    	jae    3940 <simd_pow_8bpc_npl+0xf0>
    38c2:	c5 e1 57 db          	vxorpd %xmm3,%xmm3,%xmm3
    38c6:	c5 e3 2a 4c 24 0c    	vcvtsi2sdl 0xc(%rsp),%xmm3,%xmm1
    38cc:	0f 1f 40 00          	nopl   0x0(%rax)
    38d0:	42 0f b6 14 3b       	movzbl (%rbx,%r15,1),%edx
    38d5:	c5 e9 57 d2          	vxorpd %xmm2,%xmm2,%xmm2
    38d9:	c5 fb 11 0c 24       	vmovsd %xmm1,(%rsp)
    38de:	c5 eb 2a c2          	vcvtsi2sd %edx,%xmm2,%xmm0
    38e2:	e8 f9 e7 ff ff       	call   20e0 <pow@plt>
    38e7:	c5 fb 10 0c 24       	vmovsd (%rsp),%xmm1
    38ec:	c5 e9 57 d2          	vxorpd %xmm2,%xmm2,%xmm2
    38f0:	c5 fb 2c d0          	vcvttsd2si %xmm0,%edx
    38f4:	42 88 14 3b          	mov    %dl,(%rbx,%r15,1)
    38f8:	42 0f b6 54 3d 00    	movzbl 0x0(%rbp,%r15,1),%edx
    38fe:	c5 eb 2a c2          	vcvtsi2sd %edx,%xmm2,%xmm0
    3902:	e8 d9 e7 ff ff       	call   20e0 <pow@plt>
    3907:	c5 fb 10 0c 24       	vmovsd (%rsp),%xmm1
    390c:	c5 e9 57 d2          	vxorpd %xmm2,%xmm2,%xmm2
    3910:	c5 fb 2c d0          	vcvttsd2si %xmm0,%edx
    3914:	42 88 54 3d 00       	mov    %dl,0x0(%rbp,%r15,1)
    3919:	43 0f b6 14 3c       	movzbl (%r12,%r15,1),%edx
    391e:	c5 eb 2a c2          	vcvtsi2sd %edx,%xmm2,%xmm0
    3922:	e8 b9 e7 ff ff       	call   20e0 <pow@plt>
    3927:	c5 fb 10 0c 24       	vmovsd (%rsp),%xmm1
    392c:	c5 fb 2c d0          	vcvttsd2si %xmm0,%edx
    3930:	43 88 14 3c          	mov    %dl,(%r12,%r15,1)
    3934:	49 8b 55 08          	mov    0x8(%r13),%rdx
    3938:	49 ff c7             	inc    %r15
    393b:	49 39 d7             	cmp    %rdx,%r15
    393e:	72 90                	jb     38d0 <simd_pow_8bpc_npl+0x80>
    3940:	49 ff c6             	inc    %r14
    3943:	4d 3b 75 10          	cmp    0x10(%r13),%r14
    3947:	0f 82 33 ff ff ff    	jb     3880 <simd_pow_8bpc_npl+0x30>
    394d:	48 83 c4 18          	add    $0x18,%rsp
    3951:	5b                   	pop    %rbx
    3952:	5d                   	pop    %rbp
    3953:	41 5c                	pop    %r12
    3955:	41 5d                	pop    %r13
    3957:	41 5e                	pop    %r14
    3959:	41 5f                	pop    %r15
    395b:	c3                   	ret
    395c:	c3                   	ret
    395d:	0f 1f 00             	nopl   (%rax)

0000000000003960 <pow_8bpc_npl>:
    3960:	48 83 7f 10 00       	cmpq   $0x0,0x10(%rdi)
    3965:	0f 84 f2 00 00 00    	je     3a5d <pow_8bpc_npl+0xfd>
    396b:	41 57                	push   %r15
    396d:	41 56                	push   %r14
    396f:	44 0f b6 f6          	movzbl %sil,%r14d
    3973:	41 55                	push   %r13
    3975:	41 54                	push   %r12
    3977:	45 31 ed             	xor    %r13d,%r13d
    397a:	55                   	push   %rbp
    397b:	53                   	push   %rbx
    397c:	48 89 fd             	mov    %rdi,%rbp
    397f:	48 83 ec 18          	sub    $0x18,%rsp
    3983:	48 8b 47 08          	mov    0x8(%rdi),%rax
    3987:	66 0f 1f 84 00 00 00 	nopw   0x0(%rax,%rax,1)
    398e:	00 00 
    3990:	48 85 c0             	test   %rax,%rax
    3993:	0f 84 b5 00 00 00    	je     3a4e <pow_8bpc_npl+0xee>
    3999:	c5 e1 57 db          	vxorpd %xmm3,%xmm3,%xmm3
    399d:	4e 8d 24 ed 00 00 00 	lea    0x0(,%r13,8),%r12
    39a4:	00 
    39a5:	31 db                	xor    %ebx,%ebx
    39a7:	c4 c1 63 2a ce       	vcvtsi2sd %r14d,%xmm3,%xmm1
    39ac:	0f 1f 40 00          	nopl   0x0(%rax)
    39b0:	48 8b 45 28          	mov    0x28(%rbp),%rax
    39b4:	c5 e9 57 d2          	vxorpd %xmm2,%xmm2,%xmm2
    39b8:	c5 fb 11 4c 24 08    	vmovsd %xmm1,0x8(%rsp)
    39be:	4e 8b 3c 20          	mov    (%rax,%r12,1),%r15
    39c2:	49 01 df             	add    %rbx,%r15
    39c5:	41 0f b6 07          	movzbl (%r15),%eax
    39c9:	c5 eb 2a c0          	vcvtsi2sd %eax,%xmm2,%xmm0
    39cd:	e8 0e e7 ff ff       	call   20e0 <pow@plt>
    39d2:	c5 fb 10 4c 24 08    	vmovsd 0x8(%rsp),%xmm1
    39d8:	c5 e9 57 d2          	vxorpd %xmm2,%xmm2,%xmm2
    39dc:	c5 fb 2c c0          	vcvttsd2si %xmm0,%eax
    39e0:	41 88 07             	mov    %al,(%r15)
    39e3:	48 8b 45 30          	mov    0x30(%rbp),%rax
    39e7:	4e 8b 3c 20          	mov    (%rax,%r12,1),%r15
    39eb:	49 01 df             	add    %rbx,%r15
    39ee:	41 0f b6 07          	movzbl (%r15),%eax
    39f2:	c5 eb 2a c0          	vcvtsi2sd %eax,%xmm2,%xmm0
    39f6:	e8 e5 e6 ff ff       	call   20e0 <pow@plt>
    39fb:	c5 fb 10 4c 24 08    	vmovsd 0x8(%rsp),%xmm1
    3a01:	c5 e9 57 d2          	vxorpd %xmm2,%xmm2,%xmm2
    3a05:	c5 fb 2c c0          	vcvttsd2si %xmm0,%eax
    3a09:	41 88 07             	mov    %al,(%r15)
    3a0c:	48 8b 45 38          	mov    0x38(%rbp),%rax
    3a10:	4e 8b 3c 20          	mov    (%rax,%r12,1),%r15
    3a14:	49 01 df             	add    %rbx,%r15
    3a17:	48 ff c3             	inc    %rbx
    3a1a:	41 0f b6 07          	movzbl (%r15),%eax
    3a1e:	c5 eb 2a c0          	vcvtsi2sd %eax,%xmm2,%xmm0
    3a22:	e8 b9 e6 ff ff       	call   20e0 <pow@plt>
    3a27:	c5 fb 10 4c 24 08    	vmovsd 0x8(%rsp),%xmm1
    3a2d:	c5 fb 2c c0          	vcvttsd2si %xmm0,%eax
    3a31:	41 88 07             	mov    %al,(%r15)
    3a34:	48 8b 45 08          	mov    0x8(%rbp),%rax
    3a38:	48 39 c3             	cmp    %rax,%rbx
    3a3b:	0f 82 6f ff ff ff    	jb     39b0 <pow_8bpc_npl+0x50>
    3a41:	49 ff c5             	inc    %r13
    3a44:	4c 3b 6d 10          	cmp    0x10(%rbp),%r13
    3a48:	0f 82 42 ff ff ff    	jb     3990 <pow_8bpc_npl+0x30>
    3a4e:	48 83 c4 18          	add    $0x18,%rsp
    3a52:	5b                   	pop    %rbx
    3a53:	5d                   	pop    %rbp
    3a54:	41 5c                	pop    %r12
    3a56:	41 5d                	pop    %r13
    3a58:	41 5e                	pop    %r14
    3a5a:	41 5f                	pop    %r15
    3a5c:	c3                   	ret
    3a5d:	c3                   	ret
    3a5e:	66 90                	xchg   %ax,%ax

0000000000003a60 <simd_max_8bpc_npl>:
    3a60:	48 83 7f 10 00       	cmpq   $0x0,0x10(%rdi)
    3a65:	49 89 f9             	mov    %rdi,%r9
    3a68:	89 f2                	mov    %esi,%edx
    3a6a:	0f 84 8b 00 00 00    	je     3afb <simd_max_8bpc_npl+0x9b>
    3a70:	48 8b 4f 08          	mov    0x8(%rdi),%rcx
    3a74:	45 31 db             	xor    %r11d,%r11d
    3a77:	66 0f 1f 84 00 00 00 	nopw   0x0(%rax,%rax,1)
    3a7e:	00 00 
    3a80:	49 8b 71 28          	mov    0x28(%r9),%rsi
    3a84:	49 8b 79 30          	mov    0x30(%r9),%rdi
    3a88:	4a 8d 04 dd 00 00 00 	lea    0x0(,%r11,8),%rax
    3a8f:	00 
    3a90:	49 89 ca             	mov    %rcx,%r10
    3a93:	4d 8b 41 38          	mov    0x38(%r9),%r8
    3a97:	49 83 e2 e0          	and    $0xffffffffffffffe0,%r10
    3a9b:	48 8b 34 06          	mov    (%rsi,%rax,1),%rsi
    3a9f:	48 8b 3c 07          	mov    (%rdi,%rax,1),%rdi
    3aa3:	4d 8b 04 00          	mov    (%r8,%rax,1),%r8
    3aa7:	31 c0                	xor    %eax,%eax
    3aa9:	48 83 f9 1f          	cmp    $0x1f,%rcx
    3aad:	76 3e                	jbe    3aed <simd_max_8bpc_npl+0x8d>
    3aaf:	90                   	nop
    3ab0:	48 83 c0 20          	add    $0x20,%rax
    3ab4:	4c 39 d0             	cmp    %r10,%rax
    3ab7:	72 f7                	jb     3ab0 <simd_max_8bpc_npl+0x50>
    3ab9:	48 39 c8             	cmp    %rcx,%rax
    3abc:	73 34                	jae    3af2 <simd_max_8bpc_npl+0x92>
    3abe:	66 90                	xchg   %ax,%ax
    3ac0:	0f b6 0c 06          	movzbl (%rsi,%rax,1),%ecx
    3ac4:	38 d1                	cmp    %dl,%cl
    3ac6:	0f 42 ca             	cmovb  %edx,%ecx
    3ac9:	88 0c 06             	mov    %cl,(%rsi,%rax,1)
    3acc:	0f b6 0c 07          	movzbl (%rdi,%rax,1),%ecx
    3ad0:	38 d1                	cmp    %dl,%cl
    3ad2:	0f 42 ca             	cmovb  %edx,%ecx
    3ad5:	88 0c 07             	mov    %cl,(%rdi,%rax,1)
    3ad8:	41 0f b6 0c 00       	movzbl (%r8,%rax,1),%ecx
    3add:	38 d1                	cmp    %dl,%cl
    3adf:	0f 42 ca             	cmovb  %edx,%ecx
    3ae2:	41 88 0c 00          	mov    %cl,(%r8,%rax,1)
    3ae6:	49 8b 49 08          	mov    0x8(%r9),%rcx
    3aea:	48 ff c0             	inc    %rax
    3aed:	48 39 c8             	cmp    %rcx,%rax
    3af0:	72 ce                	jb     3ac0 <simd_max_8bpc_npl+0x60>
    3af2:	49 ff c3             	inc    %r11
    3af5:	4d 3b 59 10          	cmp    0x10(%r9),%r11
    3af9:	72 85                	jb     3a80 <simd_max_8bpc_npl+0x20>
    3afb:	c3                   	ret
    3afc:	0f 1f 40 00          	nopl   0x0(%rax)

0000000000003b00 <max_8bpc_npl>:
    3b00:	48 83 7f 10 00       	cmpq   $0x0,0x10(%rdi)
    3b05:	89 f2                	mov    %esi,%edx
    3b07:	74 71                	je     3b7a <max_8bpc_npl+0x7a>
    3b09:	48 8b 4f 08          	mov    0x8(%rdi),%rcx
    3b0d:	45 31 c9             	xor    %r9d,%r9d
    3b10:	48 85 c9             	test   %rcx,%rcx
    3b13:	74 65                	je     3b7a <max_8bpc_npl+0x7a>
    3b15:	4a 8d 34 cd 00 00 00 	lea    0x0(,%r9,8),%rsi
    3b1c:	00 
    3b1d:	31 c0                	xor    %eax,%eax
    3b1f:	90                   	nop
    3b20:	48 8b 4f 28          	mov    0x28(%rdi),%rcx
    3b24:	4c 8b 04 31          	mov    (%rcx,%rsi,1),%r8
    3b28:	49 01 c0             	add    %rax,%r8
    3b2b:	41 0f b6 08          	movzbl (%r8),%ecx
    3b2f:	38 d1                	cmp    %dl,%cl
    3b31:	0f 42 ca             	cmovb  %edx,%ecx
    3b34:	41 88 08             	mov    %cl,(%r8)
    3b37:	48 8b 4f 30          	mov    0x30(%rdi),%rcx
    3b3b:	4c 8b 04 31          	mov    (%rcx,%rsi,1),%r8
    3b3f:	49 01 c0             	add    %rax,%r8
    3b42:	41 0f b6 08          	movzbl (%r8),%ecx
    3b46:	38 d1                	cmp    %dl,%cl
    3b48:	0f 42 ca             	cmovb  %edx,%ecx
    3b4b:	41 88 08             	mov    %cl,(%r8)
    3b4e:	48 8b 4f 38          	mov    0x38(%rdi),%rcx
    3b52:	4c 8b 04 31          	mov    (%rcx,%rsi,1),%r8
    3b56:	49 01 c0             	add    %rax,%r8
    3b59:	41 0f b6 08          	movzbl (%r8),%ecx
    3b5d:	38 d1                	cmp    %dl,%cl
    3b5f:	0f 42 ca             	cmovb  %edx,%ecx
    3b62:	48 ff c0             	inc    %rax
    3b65:	41 88 08             	mov    %cl,(%r8)
    3b68:	48 8b 4f 08          	mov    0x8(%rdi),%rcx
    3b6c:	48 39 c8             	cmp    %rcx,%rax
    3b6f:	72 af                	jb     3b20 <max_8bpc_npl+0x20>
    3b71:	49 ff c1             	inc    %r9
    3b74:	4c 3b 4f 10          	cmp    0x10(%rdi),%r9
    3b78:	72 96                	jb     3b10 <max_8bpc_npl+0x10>
    3b7a:	c3                   	ret
    3b7b:	0f 1f 44 00 00       	nopl   0x0(%rax,%rax,1)

0000000000003b80 <simd_sub_8bpc_npl>:
    3b80:	48 83 7f 10 00       	cmpq   $0x0,0x10(%rdi)
    3b85:	74 6a                	je     3bf1 <simd_sub_8bpc_npl+0x71>
    3b87:	48 8b 57 08          	mov    0x8(%rdi),%rdx
    3b8b:	45 31 db             	xor    %r11d,%r11d
    3b8e:	66 90                	xchg   %ax,%ax
    3b90:	48 8b 4f 28          	mov    0x28(%rdi),%rcx
    3b94:	4c 8b 47 30          	mov    0x30(%rdi),%r8
    3b98:	4a 8d 04 dd 00 00 00 	lea    0x0(,%r11,8),%rax
    3b9f:	00 
    3ba0:	49 89 d2             	mov    %rdx,%r10
    3ba3:	4c 8b 4f 38          	mov    0x38(%rdi),%r9
    3ba7:	49 83 e2 e0          	and    $0xffffffffffffffe0,%r10
    3bab:	48 8b 0c 01          	mov    (%rcx,%rax,1),%rcx
    3baf:	4d 8b 04 00          	mov    (%r8,%rax,1),%r8
    3bb3:	4d 8b 0c 01          	mov    (%r9,%rax,1),%r9
    3bb7:	31 c0                	xor    %eax,%eax
    3bb9:	48 83 fa 1f          	cmp    $0x1f,%rdx
    3bbd:	76 24                	jbe    3be3 <simd_sub_8bpc_npl+0x63>
    3bbf:	90                   	nop
    3bc0:	48 83 c0 20          	add    $0x20,%rax
    3bc4:	4c 39 d0             	cmp    %r10,%rax
    3bc7:	72 f7                	jb     3bc0 <simd_sub_8bpc_npl+0x40>
    3bc9:	48 39 d0             	cmp    %rdx,%rax
    3bcc:	73 1a                	jae    3be8 <simd_sub_8bpc_npl+0x68>
    3bce:	66 90                	xchg   %ax,%ax
    3bd0:	40 28 34 01          	sub    %sil,(%rcx,%rax,1)
    3bd4:	41 28 34 00          	sub    %sil,(%r8,%rax,1)
    3bd8:	41 28 34 01          	sub    %sil,(%r9,%rax,1)
    3bdc:	48 ff c0             	inc    %rax
    3bdf:	48 8b 57 08          	mov    0x8(%rdi),%rdx
    3be3:	48 39 d0             	cmp    %rdx,%rax
    3be6:	72 e8                	jb     3bd0 <simd_sub_8bpc_npl+0x50>
    3be8:	49 ff c3             	inc    %r11
    3beb:	4c 3b 5f 10          	cmp    0x10(%rdi),%r11
    3bef:	72 9f                	jb     3b90 <simd_sub_8bpc_npl+0x10>
    3bf1:	c3                   	ret
    3bf2:	66 66 2e 0f 1f 84 00 	data16 cs nopw 0x0(%rax,%rax,1)
    3bf9:	00 00 00 00 
    3bfd:	0f 1f 00             	nopl   (%rax)

0000000000003c00 <sub_8bpc_npl>:
    3c00:	48 8b 47 10          	mov    0x10(%rdi),%rax
    3c04:	48 89 fa             	mov    %rdi,%rdx
    3c07:	48 85 c0             	test   %rax,%rax
    3c0a:	74 6b                	je     3c77 <sub_8bpc_npl+0x77>
    3c0c:	4c 8b 47 08          	mov    0x8(%rdi),%r8
    3c10:	45 31 c9             	xor    %r9d,%r9d
    3c13:	31 c9                	xor    %ecx,%ecx
    3c15:	66 66 2e 0f 1f 84 00 	data16 cs nopw 0x0(%rax,%rax,1)
    3c1c:	00 00 00 00 
    3c20:	4d 85 c0             	test   %r8,%r8
    3c23:	74 5b                	je     3c80 <sub_8bpc_npl+0x80>
    3c25:	48 c1 e1 03          	shl    $0x3,%rcx
    3c29:	31 ff                	xor    %edi,%edi
    3c2b:	31 c0                	xor    %eax,%eax
    3c2d:	0f 1f 00             	nopl   (%rax)
    3c30:	4c 8b 42 28          	mov    0x28(%rdx),%r8
    3c34:	4d 8b 14 08          	mov    (%r8,%rcx,1),%r10
    3c38:	49 01 c2             	add    %rax,%r10
    3c3b:	41 28 32             	sub    %sil,(%r10)
    3c3e:	4c 8b 42 30          	mov    0x30(%rdx),%r8
    3c42:	4d 8b 1c 08          	mov    (%r8,%rcx,1),%r11
    3c46:	49 01 c3             	add    %rax,%r11
    3c49:	41 28 33             	sub    %sil,(%r11)
    3c4c:	4c 8b 42 38          	mov    0x38(%rdx),%r8
    3c50:	49 03 04 08          	add    (%r8,%rcx,1),%rax
    3c54:	40 28 30             	sub    %sil,(%rax)
    3c57:	8d 47 01             	lea    0x1(%rdi),%eax
    3c5a:	4c 8b 42 08          	mov    0x8(%rdx),%r8
    3c5e:	48 89 c7             	mov    %rax,%rdi
    3c61:	4c 39 c0             	cmp    %r8,%rax
    3c64:	72 ca                	jb     3c30 <sub_8bpc_npl+0x30>
    3c66:	48 8b 42 10          	mov    0x10(%rdx),%rax
    3c6a:	41 8d 49 01          	lea    0x1(%r9),%ecx
    3c6e:	49 89 c9             	mov    %rcx,%r9
    3c71:	48 39 c1             	cmp    %rax,%rcx
    3c74:	72 aa                	jb     3c20 <sub_8bpc_npl+0x20>
    3c76:	c3                   	ret
    3c77:	c3                   	ret
    3c78:	0f 1f 84 00 00 00 00 	nopl   0x0(%rax,%rax,1)
    3c7f:	00 
    3c80:	41 8d 51 01          	lea    0x1(%r9),%edx
    3c84:	49 89 d1             	mov    %rdx,%r9
    3c87:	48 39 c2             	cmp    %rax,%rdx
    3c8a:	73 eb                	jae    3c77 <sub_8bpc_npl+0x77>
    3c8c:	41 8d 51 01          	lea    0x1(%r9),%edx
    3c90:	49 89 d1             	mov    %rdx,%r9
    3c93:	48 39 c2             	cmp    %rax,%rdx
    3c96:	72 f4                	jb     3c8c <sub_8bpc_npl+0x8c>
    3c98:	c3                   	ret
    3c99:	0f 1f 80 00 00 00 00 	nopl   0x0(%rax)

0000000000003ca0 <simd_log_8bpc_npl>:
    3ca0:	48 83 7f 10 00       	cmpq   $0x0,0x10(%rdi)
    3ca5:	0f 84 05 01 00 00    	je     3db0 <simd_log_8bpc_npl+0x110>
    3cab:	41 57                	push   %r15
    3cad:	41 56                	push   %r14
    3caf:	45 31 ff             	xor    %r15d,%r15d
    3cb2:	49 89 fe             	mov    %rdi,%r14
    3cb5:	41 55                	push   %r13
    3cb7:	41 54                	push   %r12
    3cb9:	55                   	push   %rbp
    3cba:	53                   	push   %rbx
    3cbb:	48 83 ec 08          	sub    $0x8,%rsp
    3cbf:	48 8b 47 08          	mov    0x8(%rdi),%rax
    3cc3:	66 66 2e 0f 1f 84 00 	data16 cs nopw 0x0(%rax,%rax,1)
    3cca:	00 00 00 00 
    3cce:	66 90                	xchg   %ax,%ax
    3cd0:	49 8b 4e 28          	mov    0x28(%r14),%rcx
    3cd4:	4a 8d 14 fd 00 00 00 	lea    0x0(,%r15,8),%rdx
    3cdb:	00 
    3cdc:	31 db                	xor    %ebx,%ebx
    3cde:	48 8b 2c 11          	mov    (%rcx,%rdx,1),%rbp
    3ce2:	49 8b 4e 30          	mov    0x30(%r14),%rcx
    3ce6:	4c 8b 24 11          	mov    (%rcx,%rdx,1),%r12
    3cea:	49 8b 4e 38          	mov    0x38(%r14),%rcx
    3cee:	4c 8b 2c 11          	mov    (%rcx,%rdx,1),%r13
    3cf2:	48 89 c2             	mov    %rax,%rdx
    3cf5:	48 83 e2 e0          	and    $0xffffffffffffffe0,%rdx
    3cf9:	48 83 f8 1f          	cmp    $0x1f,%rax
    3cfd:	0f 86 8c 00 00 00    	jbe    3d8f <simd_log_8bpc_npl+0xef>
    3d03:	66 66 2e 0f 1f 84 00 	data16 cs nopw 0x0(%rax,%rax,1)
    3d0a:	00 00 00 00 
    3d0e:	66 90                	xchg   %ax,%ax
    3d10:	48 83 c3 20          	add    $0x20,%rbx
    3d14:	48 39 d3             	cmp    %rdx,%rbx
    3d17:	72 f7                	jb     3d10 <simd_log_8bpc_npl+0x70>
    3d19:	48 39 c3             	cmp    %rax,%rbx
    3d1c:	73 76                	jae    3d94 <simd_log_8bpc_npl+0xf4>
    3d1e:	66 90                	xchg   %ax,%ax
    3d20:	0f b6 44 1d 00       	movzbl 0x0(%rbp,%rbx,1),%eax
    3d25:	c5 f1 57 c9          	vxorpd %xmm1,%xmm1,%xmm1
    3d29:	c5 f3 2a c0          	vcvtsi2sd %eax,%xmm1,%xmm0
    3d2d:	e8 4e e4 ff ff       	call   2180 <log@plt>
    3d32:	c5 fb 5e 05 1e 33 03 	vdivsd 0x3331e(%rip),%xmm0,%xmm0        # 37058 <_IO_stdin_used+0x58>
    3d39:	00 
    3d3a:	c5 f1 57 c9          	vxorpd %xmm1,%xmm1,%xmm1
    3d3e:	c5 fb 2c c0          	vcvttsd2si %xmm0,%eax
    3d42:	88 44 1d 00          	mov    %al,0x0(%rbp,%rbx,1)
    3d46:	41 0f b6 04 1c       	movzbl (%r12,%rbx,1),%eax
    3d4b:	c5 f3 2a c0          	vcvtsi2sd %eax,%xmm1,%xmm0
    3d4f:	e8 2c e4 ff ff       	call   2180 <log@plt>
    3d54:	c5 fb 5e 05 fc 32 03 	vdivsd 0x332fc(%rip),%xmm0,%xmm0        # 37058 <_IO_stdin_used+0x58>
    3d5b:	00 
    3d5c:	c5 f1 57 c9          	vxorpd %xmm1,%xmm1,%xmm1
    3d60:	c5 fb 2c c0          	vcvttsd2si %xmm0,%eax
    3d64:	41 88 04 1c          	mov    %al,(%r12,%rbx,1)
    3d68:	41 0f b6 44 1d 00    	movzbl 0x0(%r13,%rbx,1),%eax
    3d6e:	c5 f3 2a c0          	vcvtsi2sd %eax,%xmm1,%xmm0
    3d72:	e8 09 e4 ff ff       	call   2180 <log@plt>
    3d77:	c5 fb 5e 05 d9 32 03 	vdivsd 0x332d9(%rip),%xmm0,%xmm0        # 37058 <_IO_stdin_used+0x58>
    3d7e:	00 
    3d7f:	c5 fb 2c c0          	vcvttsd2si %xmm0,%eax
    3d83:	41 88 44 1d 00       	mov    %al,0x0(%r13,%rbx,1)
    3d88:	49 8b 46 08          	mov    0x8(%r14),%rax
    3d8c:	48 ff c3             	inc    %rbx
    3d8f:	48 39 c3             	cmp    %rax,%rbx
    3d92:	72 8c                	jb     3d20 <simd_log_8bpc_npl+0x80>
    3d94:	49 ff c7             	inc    %r15
    3d97:	4d 3b 7e 10          	cmp    0x10(%r14),%r15
    3d9b:	0f 82 2f ff ff ff    	jb     3cd0 <simd_log_8bpc_npl+0x30>
    3da1:	48 83 c4 08          	add    $0x8,%rsp
    3da5:	5b                   	pop    %rbx
    3da6:	5d                   	pop    %rbp
    3da7:	41 5c                	pop    %r12
    3da9:	41 5d                	pop    %r13
    3dab:	41 5e                	pop    %r14
    3dad:	41 5f                	pop    %r15
    3daf:	c3                   	ret
    3db0:	c3                   	ret
    3db1:	66 66 2e 0f 1f 84 00 	data16 cs nopw 0x0(%rax,%rax,1)
    3db8:	00 00 00 00 
    3dbc:	0f 1f 40 00          	nopl   0x0(%rax)

0000000000003dc0 <log_8bpc_npl>:
    3dc0:	48 83 7f 10 00       	cmpq   $0x0,0x10(%rdi)
    3dc5:	0f 84 dc 00 00 00    	je     3ea7 <log_8bpc_npl+0xe7>
    3dcb:	48 8b 47 08          	mov    0x8(%rdi),%rax
    3dcf:	41 56                	push   %r14
    3dd1:	41 55                	push   %r13
    3dd3:	45 31 ed             	xor    %r13d,%r13d
    3dd6:	41 54                	push   %r12
    3dd8:	55                   	push   %rbp
    3dd9:	48 89 fd             	mov    %rdi,%rbp
    3ddc:	53                   	push   %rbx
    3ddd:	0f 1f 00             	nopl   (%rax)
    3de0:	48 85 c0             	test   %rax,%rax
    3de3:	0f 84 b5 00 00 00    	je     3e9e <log_8bpc_npl+0xde>
    3de9:	4e 8d 24 ed 00 00 00 	lea    0x0(,%r13,8),%r12
    3df0:	00 
    3df1:	31 db                	xor    %ebx,%ebx
    3df3:	66 66 2e 0f 1f 84 00 	data16 cs nopw 0x0(%rax,%rax,1)
    3dfa:	00 00 00 00 
    3dfe:	66 90                	xchg   %ax,%ax
    3e00:	48 8b 45 28          	mov    0x28(%rbp),%rax
    3e04:	c5 f1 57 c9          	vxorpd %xmm1,%xmm1,%xmm1
    3e08:	4e 8b 34 20          	mov    (%rax,%r12,1),%r14
    3e0c:	49 01 de             	add    %rbx,%r14
    3e0f:	41 0f b6 06          	movzbl (%r14),%eax
    3e13:	c5 f3 2a c0          	vcvtsi2sd %eax,%xmm1,%xmm0
    3e17:	e8 64 e3 ff ff       	call   2180 <log@plt>
    3e1c:	c5 fb 5e 05 34 32 03 	vdivsd 0x33234(%rip),%xmm0,%xmm0        # 37058 <_IO_stdin_used+0x58>
    3e23:	00 
    3e24:	c5 f1 57 c9          	vxorpd %xmm1,%xmm1,%xmm1
    3e28:	c5 fb 2c c0          	vcvttsd2si %xmm0,%eax
    3e2c:	41 88 06             	mov    %al,(%r14)
    3e2f:	48 8b 45 30          	mov    0x30(%rbp),%rax
    3e33:	4e 8b 34 20          	mov    (%rax,%r12,1),%r14
    3e37:	49 01 de             	add    %rbx,%r14
    3e3a:	41 0f b6 06          	movzbl (%r14),%eax
    3e3e:	c5 f3 2a c0          	vcvtsi2sd %eax,%xmm1,%xmm0
    3e42:	e8 39 e3 ff ff       	call   2180 <log@plt>
    3e47:	c5 fb 5e 05 09 32 03 	vdivsd 0x33209(%rip),%xmm0,%xmm0        # 37058 <_IO_stdin_used+0x58>
    3e4e:	00 
    3e4f:	c5 f1 57 c9          	vxorpd %xmm1,%xmm1,%xmm1
    3e53:	c5 fb 2c c0          	vcvttsd2si %xmm0,%eax
    3e57:	41 88 06             	mov    %al,(%r14)
    3e5a:	48 8b 45 38          	mov    0x38(%rbp),%rax
    3e5e:	4e 8b 34 20          	mov    (%rax,%r12,1),%r14
    3e62:	49 01 de             	add    %rbx,%r14
    3e65:	48 ff c3             	inc    %rbx
    3e68:	41 0f b6 06          	movzbl (%r14),%eax
    3e6c:	c5 f3 2a c0          	vcvtsi2sd %eax,%xmm1,%xmm0
    3e70:	e8 0b e3 ff ff       	call   2180 <log@plt>
    3e75:	c5 fb 5e 05 db 31 03 	vdivsd 0x331db(%rip),%xmm0,%xmm0        # 37058 <_IO_stdin_used+0x58>
    3e7c:	00 
    3e7d:	c5 fb 2c c0          	vcvttsd2si %xmm0,%eax
    3e81:	41 88 06             	mov    %al,(%r14)
    3e84:	48 8b 45 08          	mov    0x8(%rbp),%rax
    3e88:	48 39 c3             	cmp    %rax,%rbx
    3e8b:	0f 82 6f ff ff ff    	jb     3e00 <log_8bpc_npl+0x40>
    3e91:	49 ff c5             	inc    %r13
    3e94:	4c 3b 6d 10          	cmp    0x10(%rbp),%r13
    3e98:	0f 82 42 ff ff ff    	jb     3de0 <log_8bpc_npl+0x20>
    3e9e:	5b                   	pop    %rbx
    3e9f:	5d                   	pop    %rbp
    3ea0:	41 5c                	pop    %r12
    3ea2:	41 5d                	pop    %r13
    3ea4:	41 5e                	pop    %r14
    3ea6:	c3                   	ret
    3ea7:	c3                   	ret
    3ea8:	0f 1f 84 00 00 00 00 	nopl   0x0(%rax,%rax,1)
    3eaf:	00 

0000000000003eb0 <simd_subs_8bpc_npl>:
    3eb0:	48 83 7f 10 00       	cmpq   $0x0,0x10(%rdi)
    3eb5:	49 89 fa             	mov    %rdi,%r10
    3eb8:	0f 84 9a 00 00 00    	je     3f58 <simd_subs_8bpc_npl+0xa8>
    3ebe:	48 8b 57 08          	mov    0x8(%rdi),%rdx
    3ec2:	45 31 db             	xor    %r11d,%r11d
    3ec5:	40 0f b6 ce          	movzbl %sil,%ecx
    3ec9:	0f 1f 80 00 00 00 00 	nopl   0x0(%rax)
    3ed0:	49 8b 72 28          	mov    0x28(%r10),%rsi
    3ed4:	49 8b 7a 30          	mov    0x30(%r10),%rdi
    3ed8:	4a 8d 04 dd 00 00 00 	lea    0x0(,%r11,8),%rax
    3edf:	00 
    3ee0:	49 89 d1             	mov    %rdx,%r9
    3ee3:	4d 8b 42 38          	mov    0x38(%r10),%r8
    3ee7:	49 83 e1 e0          	and    $0xffffffffffffffe0,%r9
    3eeb:	48 8b 34 06          	mov    (%rsi,%rax,1),%rsi
    3eef:	48 8b 3c 07          	mov    (%rdi,%rax,1),%rdi
    3ef3:	4d 8b 04 00          	mov    (%r8,%rax,1),%r8
    3ef7:	31 c0                	xor    %eax,%eax
    3ef9:	48 83 fa 1f          	cmp    $0x1f,%rdx
    3efd:	76 47                	jbe    3f46 <simd_subs_8bpc_npl+0x96>
    3eff:	90                   	nop
    3f00:	48 83 c0 20          	add    $0x20,%rax
    3f04:	4c 39 c8             	cmp    %r9,%rax
    3f07:	72 f7                	jb     3f00 <simd_subs_8bpc_npl+0x50>
    3f09:	48 39 d0             	cmp    %rdx,%rax
    3f0c:	73 3d                	jae    3f4b <simd_subs_8bpc_npl+0x9b>
    3f0e:	66 90                	xchg   %ax,%ax
    3f10:	0f b6 14 06          	movzbl (%rsi,%rax,1),%edx
    3f14:	41 b9 00 00 00 00    	mov    $0x0,%r9d
    3f1a:	29 ca                	sub    %ecx,%edx
    3f1c:	41 0f 48 d1          	cmovs  %r9d,%edx
    3f20:	88 14 06             	mov    %dl,(%rsi,%rax,1)
    3f23:	0f b6 14 07          	movzbl (%rdi,%rax,1),%edx
    3f27:	29 ca                	sub    %ecx,%edx
    3f29:	41 0f 48 d1          	cmovs  %r9d,%edx
    3f2d:	88 14 07             	mov    %dl,(%rdi,%rax,1)
    3f30:	41 0f b6 14 00       	movzbl (%r8,%rax,1),%edx
    3f35:	29 ca                	sub    %ecx,%edx
    3f37:	41 0f 48 d1          	cmovs  %r9d,%edx
    3f3b:	41 88 14 00          	mov    %dl,(%r8,%rax,1)
    3f3f:	49 8b 52 08          	mov    0x8(%r10),%rdx
    3f43:	48 ff c0             	inc    %rax
    3f46:	48 39 d0             	cmp    %rdx,%rax
    3f49:	72 c5                	jb     3f10 <simd_subs_8bpc_npl+0x60>
    3f4b:	49 ff c3             	inc    %r11
    3f4e:	4d 3b 5a 10          	cmp    0x10(%r10),%r11
    3f52:	0f 82 78 ff ff ff    	jb     3ed0 <simd_subs_8bpc_npl+0x20>
    3f58:	c3                   	ret
    3f59:	0f 1f 80 00 00 00 00 	nopl   0x0(%rax)

0000000000003f60 <subs_8bpc_npl>:
    3f60:	48 83 7f 10 00       	cmpq   $0x0,0x10(%rdi)
    3f65:	0f 84 a8 00 00 00    	je     4013 <subs_8bpc_npl+0xb3>
    3f6b:	48 8b 47 08          	mov    0x8(%rdi),%rax
    3f6f:	45 31 db             	xor    %r11d,%r11d
    3f72:	44 0f b6 ce          	movzbl %sil,%r9d
    3f76:	48 85 c0             	test   %rax,%rax
    3f79:	0f 84 95 00 00 00    	je     4014 <subs_8bpc_npl+0xb4>
    3f7f:	53                   	push   %rbx
    3f80:	4e 8d 04 dd 00 00 00 	lea    0x0(,%r11,8),%r8
    3f87:	00 
    3f88:	31 c9                	xor    %ecx,%ecx
    3f8a:	66 0f 1f 44 00 00    	nopw   0x0(%rax,%rax,1)
    3f90:	48 8b 47 28          	mov    0x28(%rdi),%rax
    3f94:	bb 00 00 00 00       	mov    $0x0,%ebx
    3f99:	4e 8b 14 00          	mov    (%rax,%r8,1),%r10
    3f9d:	48 8b 47 30          	mov    0x30(%rdi),%rax
    3fa1:	4a 8b 04 00          	mov    (%rax,%r8,1),%rax
    3fa5:	49 01 ca             	add    %rcx,%r10
    3fa8:	41 0f b6 32          	movzbl (%r10),%esi
    3fac:	0f b6 14 08          	movzbl (%rax,%rcx,1),%edx
    3fb0:	48 8b 47 38          	mov    0x38(%rdi),%rax
    3fb4:	44 29 ce             	sub    %r9d,%esi
    3fb7:	0f 48 f3             	cmovs  %ebx,%esi
    3fba:	4a 8b 04 00          	mov    (%rax,%r8,1),%rax
    3fbe:	44 29 ca             	sub    %r9d,%edx
    3fc1:	0f b6 04 08          	movzbl (%rax,%rcx,1),%eax
    3fc5:	41 88 32             	mov    %sil,(%r10)
    3fc8:	48 8b 77 30          	mov    0x30(%rdi),%rsi
    3fcc:	41 ba 00 00 00 00    	mov    $0x0,%r10d
    3fd2:	41 0f 48 d2          	cmovs  %r10d,%edx
    3fd6:	4a 8b 34 06          	mov    (%rsi,%r8,1),%rsi
    3fda:	44 29 c8             	sub    %r9d,%eax
    3fdd:	88 14 0e             	mov    %dl,(%rsi,%rcx,1)
    3fe0:	48 8b 57 38          	mov    0x38(%rdi),%rdx
    3fe4:	be 00 00 00 00       	mov    $0x0,%esi
    3fe9:	0f 48 c6             	cmovs  %esi,%eax
    3fec:	4a 8b 14 02          	mov    (%rdx,%r8,1),%rdx
    3ff0:	88 04 0a             	mov    %al,(%rdx,%rcx,1)
    3ff3:	48 8b 47 08          	mov    0x8(%rdi),%rax
    3ff7:	48 ff c1             	inc    %rcx
    3ffa:	48 39 c1             	cmp    %rax,%rcx
    3ffd:	72 91                	jb     3f90 <subs_8bpc_npl+0x30>
    3fff:	49 ff c3             	inc    %r11
    4002:	4c 3b 5f 10          	cmp    0x10(%rdi),%r11
    4006:	73 09                	jae    4011 <subs_8bpc_npl+0xb1>
    4008:	48 85 c0             	test   %rax,%rax
    400b:	0f 85 6f ff ff ff    	jne    3f80 <subs_8bpc_npl+0x20>
    4011:	5b                   	pop    %rbx
    4012:	c3                   	ret
    4013:	c3                   	ret
    4014:	c3                   	ret
    4015:	66 2e 0f 1f 84 00 00 	cs nopw 0x0(%rax,%rax,1)
    401c:	00 00 00 
    401f:	90                   	nop

0000000000004020 <simd_mul_8bpc_npl>:
    4020:	48 83 7f 10 00       	cmpq   $0x0,0x10(%rdi)
    4025:	49 89 f9             	mov    %rdi,%r9
    4028:	89 f1                	mov    %esi,%ecx
    402a:	0f 84 85 00 00 00    	je     40b5 <simd_mul_8bpc_npl+0x95>
    4030:	48 8b 47 08          	mov    0x8(%rdi),%rax
    4034:	45 31 db             	xor    %r11d,%r11d
    4037:	66 0f 1f 84 00 00 00 	nopw   0x0(%rax,%rax,1)
    403e:	00 00 
    4040:	49 8b 71 28          	mov    0x28(%r9),%rsi
    4044:	49 8b 79 30          	mov    0x30(%r9),%rdi
    4048:	4a 8d 14 dd 00 00 00 	lea    0x0(,%r11,8),%rdx
    404f:	00 
    4050:	49 89 c2             	mov    %rax,%r10
    4053:	4d 8b 41 38          	mov    0x38(%r9),%r8
    4057:	49 83 e2 e0          	and    $0xffffffffffffffe0,%r10
    405b:	48 8b 34 16          	mov    (%rsi,%rdx,1),%rsi
    405f:	48 8b 3c 17          	mov    (%rdi,%rdx,1),%rdi
    4063:	4d 8b 04 10          	mov    (%r8,%rdx,1),%r8
    4067:	31 d2                	xor    %edx,%edx
    4069:	48 83 f8 1f          	cmp    $0x1f,%rax
    406d:	76 38                	jbe    40a7 <simd_mul_8bpc_npl+0x87>
    406f:	90                   	nop
    4070:	48 83 c2 20          	add    $0x20,%rdx
    4074:	4c 39 d2             	cmp    %r10,%rdx
    4077:	72 f7                	jb     4070 <simd_mul_8bpc_npl+0x50>
    4079:	48 39 c2             	cmp    %rax,%rdx
    407c:	73 2e                	jae    40ac <simd_mul_8bpc_npl+0x8c>
    407e:	66 90                	xchg   %ax,%ax
    4080:	0f b6 04 16          	movzbl (%rsi,%rdx,1),%eax
    4084:	0f af c1             	imul   %ecx,%eax
    4087:	88 04 16             	mov    %al,(%rsi,%rdx,1)
    408a:	0f b6 04 17          	movzbl (%rdi,%rdx,1),%eax
    408e:	0f af c1             	imul   %ecx,%eax
    4091:	88 04 17             	mov    %al,(%rdi,%rdx,1)
    4094:	41 0f b6 04 10       	movzbl (%r8,%rdx,1),%eax
    4099:	0f af c1             	imul   %ecx,%eax
    409c:	41 88 04 10          	mov    %al,(%r8,%rdx,1)
    40a0:	49 8b 41 08          	mov    0x8(%r9),%rax
    40a4:	48 ff c2             	inc    %rdx
    40a7:	48 39 c2             	cmp    %rax,%rdx
    40aa:	72 d4                	jb     4080 <simd_mul_8bpc_npl+0x60>
    40ac:	49 ff c3             	inc    %r11
    40af:	4d 3b 59 10          	cmp    0x10(%r9),%r11
    40b3:	72 8b                	jb     4040 <simd_mul_8bpc_npl+0x20>
    40b5:	c3                   	ret
    40b6:	66 2e 0f 1f 84 00 00 	cs nopw 0x0(%rax,%rax,1)
    40bd:	00 00 00 

00000000000040c0 <mul_8bpc_npl>:
    40c0:	48 83 7f 10 00       	cmpq   $0x0,0x10(%rdi)
    40c5:	0f 84 ea 00 00 00    	je     41b5 <mul_8bpc_npl+0xf5>
    40cb:	48 8b 47 08          	mov    0x8(%rdi),%rax
    40cf:	41 89 f2             	mov    %esi,%r10d
    40d2:	45 31 db             	xor    %r11d,%r11d
    40d5:	44 0f b6 ce          	movzbl %sil,%r9d
    40d9:	48 85 c0             	test   %rax,%rax
    40dc:	0f 84 d4 00 00 00    	je     41b6 <mul_8bpc_npl+0xf6>
    40e2:	53                   	push   %rbx
    40e3:	66 66 2e 0f 1f 84 00 	data16 cs nopw 0x0(%rax,%rax,1)
    40ea:	00 00 00 00 
    40ee:	66 90                	xchg   %ax,%ax
    40f0:	4e 8d 04 dd 00 00 00 	lea    0x0(,%r11,8),%r8
    40f7:	00 
    40f8:	31 d2                	xor    %edx,%edx
    40fa:	66 0f 1f 44 00 00    	nopw   0x0(%rax,%rax,1)
    4100:	48 8b 47 28          	mov    0x28(%rdi),%rax
    4104:	4a 8b 34 00          	mov    (%rax,%r8,1),%rsi
    4108:	b8 ff ff ff ff       	mov    $0xffffffff,%eax
    410d:	48 01 d6             	add    %rdx,%rsi
    4110:	0f b6 0e             	movzbl (%rsi),%ecx
    4113:	89 cb                	mov    %ecx,%ebx
    4115:	41 0f af c9          	imul   %r9d,%ecx
    4119:	81 f9 fe 00 00 00    	cmp    $0xfe,%ecx
    411f:	7f 06                	jg     4127 <mul_8bpc_npl+0x67>
    4121:	89 d8                	mov    %ebx,%eax
    4123:	41 0f af c2          	imul   %r10d,%eax
    4127:	88 06                	mov    %al,(%rsi)
    4129:	48 8b 47 30          	mov    0x30(%rdi),%rax
    412d:	4a 8b 34 00          	mov    (%rax,%r8,1),%rsi
    4131:	b8 ff ff ff ff       	mov    $0xffffffff,%eax
    4136:	48 01 d6             	add    %rdx,%rsi
    4139:	0f b6 0e             	movzbl (%rsi),%ecx
    413c:	89 cb                	mov    %ecx,%ebx
    413e:	41 0f af c9          	imul   %r9d,%ecx
    4142:	81 f9 fe 00 00 00    	cmp    $0xfe,%ecx
    4148:	7f 06                	jg     4150 <mul_8bpc_npl+0x90>
    414a:	89 d8                	mov    %ebx,%eax
    414c:	41 0f af c2          	imul   %r10d,%eax
    4150:	88 06                	mov    %al,(%rsi)
    4152:	48 8b 47 38          	mov    0x38(%rdi),%rax
    4156:	4a 8b 1c 00          	mov    (%rax,%r8,1),%rbx
    415a:	48 01 d3             	add    %rdx,%rbx
    415d:	0f b6 33             	movzbl (%rbx),%esi
    4160:	89 f1                	mov    %esi,%ecx
    4162:	41 0f af f1          	imul   %r9d,%esi
    4166:	81 fe fe 00 00 00    	cmp    $0xfe,%esi
    416c:	7f 32                	jg     41a0 <mul_8bpc_npl+0xe0>
    416e:	89 c8                	mov    %ecx,%eax
    4170:	48 ff c2             	inc    %rdx
    4173:	41 0f af c2          	imul   %r10d,%eax
    4177:	88 03                	mov    %al,(%rbx)
    4179:	48 8b 47 08          	mov    0x8(%rdi),%rax
    417d:	48 39 c2             	cmp    %rax,%rdx
    4180:	0f 82 7a ff ff ff    	jb     4100 <mul_8bpc_npl+0x40>
    4186:	49 ff c3             	inc    %r11
    4189:	4c 3b 5f 10          	cmp    0x10(%rdi),%r11
    418d:	73 09                	jae    4198 <mul_8bpc_npl+0xd8>
    418f:	48 85 c0             	test   %rax,%rax
    4192:	0f 85 58 ff ff ff    	jne    40f0 <mul_8bpc_npl+0x30>
    4198:	5b                   	pop    %rbx
    4199:	c3                   	ret
    419a:	66 0f 1f 44 00 00    	nopw   0x0(%rax,%rax,1)
    41a0:	c6 03 ff             	movb   $0xff,(%rbx)
    41a3:	48 8b 47 08          	mov    0x8(%rdi),%rax
    41a7:	48 ff c2             	inc    %rdx
    41aa:	48 39 c2             	cmp    %rax,%rdx
    41ad:	0f 82 4d ff ff ff    	jb     4100 <mul_8bpc_npl+0x40>
    41b3:	eb d1                	jmp    4186 <mul_8bpc_npl+0xc6>
    41b5:	c3                   	ret
    41b6:	c3                   	ret
    41b7:	66 0f 1f 84 00 00 00 	nopw   0x0(%rax,%rax,1)
    41be:	00 00 

00000000000041c0 <simd_kern_8bpc>:
    41c0:	55                   	push   %rbp
    41c1:	48 89 c8             	mov    %rcx,%rax
    41c4:	48 89 e5             	mov    %rsp,%rbp
    41c7:	41 57                	push   %r15
    41c9:	41 56                	push   %r14
    41cb:	41 55                	push   %r13
    41cd:	41 54                	push   %r12
    41cf:	53                   	push   %rbx
    41d0:	48 83 e4 e0          	and    $0xffffffffffffffe0,%rsp
    41d4:	4c 8b 65 18          	mov    0x18(%rbp),%r12
    41d8:	4c 8b 75 10          	mov    0x10(%rbp),%r14
    41dc:	4c 89 44 24 f8       	mov    %r8,-0x8(%rsp)
    41e1:	4c 8b 6d 20          	mov    0x20(%rbp),%r13
    41e5:	4d 85 e4             	test   %r12,%r12
    41e8:	0f 84 a8 02 00 00    	je     4496 <simd_kern_8bpc+0x2d6>
    41ee:	49 89 d2             	mov    %rdx,%r10
    41f1:	c5 e8 57 d2          	vxorps %xmm2,%xmm2,%xmm2
    41f5:	48 8d 14 cd 00 00 00 	lea    0x0(,%rcx,8),%rdx
    41fc:	00 
    41fd:	48 89 fb             	mov    %rdi,%rbx
    4200:	49 89 f3             	mov    %rsi,%r11
    4203:	48 01 d3             	add    %rdx,%rbx
    4206:	49 01 d2             	add    %rdx,%r10
    4209:	c5 fc 28 e2          	vmovaps %ymm2,%ymm4
    420d:	49 01 d3             	add    %rdx,%r11
    4210:	c5 fc 28 da          	vmovaps %ymm2,%ymm3
    4214:	45 31 ff             	xor    %r15d,%r15d
    4217:	4f 8d 0c 28          	lea    (%r8,%r13,1),%r9
    421b:	48 89 4c 24 f0       	mov    %rcx,-0x10(%rsp)
    4220:	4d 85 ed             	test   %r13,%r13
    4223:	74 66                	je     428b <simd_kern_8bpc+0xcb>
    4225:	48 8b 44 24 f8       	mov    -0x8(%rsp),%rax
    422a:	4d 8b 06             	mov    (%r14),%r8
    422d:	31 d2                	xor    %edx,%edx
    422f:	48 8b 3b             	mov    (%rbx),%rdi
    4232:	49 8b 33             	mov    (%r11),%rsi
    4235:	49 8b 0a             	mov    (%r10),%rcx
    4238:	0f 1f 84 00 00 00 00 	nopl   0x0(%rax,%rax,1)
    423f:	00 
    4240:	c5 fb f0 04 07       	vlddqu (%rdi,%rax,1),%xmm0
    4245:	c4 c2 7d 18 0c 10    	vbroadcastss (%r8,%rdx,1),%ymm1
    424b:	48 83 c2 04          	add    $0x4,%rdx
    424f:	c4 e2 7d 31 c0       	vpmovzxbd %xmm0,%ymm0
    4254:	c5 fc 5b c0          	vcvtdq2ps %ymm0,%ymm0
    4258:	c4 e2 7d b8 d9       	vfmadd231ps %ymm1,%ymm0,%ymm3
    425d:	c5 fb f0 04 06       	vlddqu (%rsi,%rax,1),%xmm0
    4262:	c4 e2 7d 31 c0       	vpmovzxbd %xmm0,%ymm0
    4267:	c5 fc 5b c0          	vcvtdq2ps %ymm0,%ymm0
    426b:	c4 e2 7d b8 e1       	vfmadd231ps %ymm1,%ymm0,%ymm4
    4270:	c5 fb f0 04 01       	vlddqu (%rcx,%rax,1),%xmm0
    4275:	48 ff c0             	inc    %rax
    4278:	c4 e2 7d 31 c0       	vpmovzxbd %xmm0,%ymm0
    427d:	c5 fc 5b c0          	vcvtdq2ps %ymm0,%ymm0
    4281:	c4 e2 7d b8 d1       	vfmadd231ps %ymm1,%ymm0,%ymm2
    4286:	4c 39 c8             	cmp    %r9,%rax
    4289:	75 b5                	jne    4240 <simd_kern_8bpc+0x80>
    428b:	49 ff c7             	inc    %r15
    428e:	49 83 c6 08          	add    $0x8,%r14
    4292:	48 83 c3 08          	add    $0x8,%rbx
    4296:	49 83 c3 08          	add    $0x8,%r11
    429a:	49 83 c2 08          	add    $0x8,%r10
    429e:	4d 39 fc             	cmp    %r15,%r12
    42a1:	0f 85 79 ff ff ff    	jne    4220 <simd_kern_8bpc+0x60>
    42a7:	48 8b 44 24 f0       	mov    -0x10(%rsp),%rax
    42ac:	c4 e2 7d 18 2d ab 2d 	vbroadcastss 0x32dab(%rip),%ymm5        # 37060 <_IO_stdin_used+0x60>
    42b3:	03 00 
    42b5:	48 8b 35 8c af 03 00 	mov    0x3af8c(%rip),%rsi        # 3f248 <kr>
    42bc:	49 d1 ec             	shr    %r12
    42bf:	c5 f0 57 c9          	vxorps %xmm1,%xmm1,%xmm1
    42c3:	4c 01 e0             	add    %r12,%rax
    42c6:	48 8b 5c 24 f8       	mov    -0x8(%rsp),%rbx
    42cb:	48 8b 0d 6e af 03 00 	mov    0x3af6e(%rip),%rcx        # 3f240 <kg>
    42d2:	49 d1 ed             	shr    %r13
    42d5:	48 c1 e0 03          	shl    $0x3,%rax
    42d9:	48 01 c6             	add    %rax,%rsi
    42dc:	48 8b 16             	mov    (%rsi),%rdx
    42df:	49 01 dd             	add    %rbx,%r13
    42e2:	48 01 c1             	add    %rax,%rcx
    42e5:	48 03 05 4c af 03 00 	add    0x3af4c(%rip),%rax        # 3f238 <kb>
    42ec:	c5 e4 5d dd          	vminps %ymm5,%ymm3,%ymm3
    42f0:	c5 dc 5d c5          	vminps %ymm5,%ymm4,%ymm0
    42f4:	c5 ec 5d d5          	vminps %ymm5,%ymm2,%ymm2
    42f8:	c5 e4 5f d9          	vmaxps %ymm1,%ymm3,%ymm3
    42fc:	c5 fc 5f c1          	vmaxps %ymm1,%ymm0,%ymm0
    4300:	c5 ec 5f d1          	vmaxps %ymm1,%ymm2,%ymm2
    4304:	c5 fa 2c fb          	vcvttss2si %xmm3,%edi
    4308:	42 88 3c 2a          	mov    %dil,(%rdx,%r13,1)
    430c:	48 8b 11             	mov    (%rcx),%rdx
    430f:	c5 fa 2c f8          	vcvttss2si %xmm0,%edi
    4313:	c5 e0 c6 f3 55       	vshufps $0x55,%xmm3,%xmm3,%xmm6
    4318:	c5 e0 c6 eb ff       	vshufps $0xff,%xmm3,%xmm3,%xmm5
    431d:	c5 7a 2c c6          	vcvttss2si %xmm6,%r8d
    4321:	c5 f8 c6 f0 55       	vshufps $0x55,%xmm0,%xmm0,%xmm6
    4326:	c5 f8 c6 e0 ff       	vshufps $0xff,%xmm0,%xmm0,%xmm4
    432b:	c5 e8 c6 ca ff       	vshufps $0xff,%xmm2,%xmm2,%xmm1
    4330:	42 88 3c 2a          	mov    %dil,(%rdx,%r13,1)
    4334:	48 8b 10             	mov    (%rax),%rdx
    4337:	c5 fa 2c fa          	vcvttss2si %xmm2,%edi
    433b:	42 88 3c 2a          	mov    %dil,(%rdx,%r13,1)
    433f:	48 8b 3e             	mov    (%rsi),%rdi
    4342:	46 88 44 2f 01       	mov    %r8b,0x1(%rdi,%r13,1)
    4347:	48 8b 39             	mov    (%rcx),%rdi
    434a:	c5 7a 2c c6          	vcvttss2si %xmm6,%r8d
    434e:	c5 e8 c6 f2 55       	vshufps $0x55,%xmm2,%xmm2,%xmm6
    4353:	46 88 44 2f 01       	mov    %r8b,0x1(%rdi,%r13,1)
    4358:	48 8b 38             	mov    (%rax),%rdi
    435b:	c5 7a 2c c6          	vcvttss2si %xmm6,%r8d
    435f:	c5 e0 15 f3          	vunpckhps %xmm3,%xmm3,%xmm6
    4363:	c4 e3 7d 19 db 01    	vextractf128 $0x1,%ymm3,%xmm3
    4369:	46 88 44 2f 01       	mov    %r8b,0x1(%rdi,%r13,1)
    436e:	48 8b 3e             	mov    (%rsi),%rdi
    4371:	c5 7a 2c c6          	vcvttss2si %xmm6,%r8d
    4375:	c5 f8 15 f0          	vunpckhps %xmm0,%xmm0,%xmm6
    4379:	46 88 44 2f 02       	mov    %r8b,0x2(%rdi,%r13,1)
    437e:	48 8b 39             	mov    (%rcx),%rdi
    4381:	c5 7a 2c c6          	vcvttss2si %xmm6,%r8d
    4385:	c5 e8 15 f2          	vunpckhps %xmm2,%xmm2,%xmm6
    4389:	46 88 44 2f 02       	mov    %r8b,0x2(%rdi,%r13,1)
    438e:	48 8b 38             	mov    (%rax),%rdi
    4391:	c5 7a 2c c6          	vcvttss2si %xmm6,%r8d
    4395:	46 88 44 2f 02       	mov    %r8b,0x2(%rdi,%r13,1)
    439a:	48 8b 3e             	mov    (%rsi),%rdi
    439d:	c5 7a 2c c5          	vcvttss2si %xmm5,%r8d
    43a1:	46 88 44 2f 03       	mov    %r8b,0x3(%rdi,%r13,1)
    43a6:	48 8b 39             	mov    (%rcx),%rdi
    43a9:	c5 7a 2c c4          	vcvttss2si %xmm4,%r8d
    43ad:	46 88 44 2f 03       	mov    %r8b,0x3(%rdi,%r13,1)
    43b2:	48 8b 38             	mov    (%rax),%rdi
    43b5:	c5 7a 2c c1          	vcvttss2si %xmm1,%r8d
    43b9:	c4 e3 7d 19 c1 01    	vextractf128 $0x1,%ymm0,%xmm1
    43bf:	c4 e3 7d 19 d0 01    	vextractf128 $0x1,%ymm2,%xmm0
    43c5:	c5 e0 c6 d3 55       	vshufps $0x55,%xmm3,%xmm3,%xmm2
    43ca:	46 88 44 2f 03       	mov    %r8b,0x3(%rdi,%r13,1)
    43cf:	48 8b 3e             	mov    (%rsi),%rdi
    43d2:	c5 7a 2c c3          	vcvttss2si %xmm3,%r8d
    43d6:	46 88 44 2f 04       	mov    %r8b,0x4(%rdi,%r13,1)
    43db:	48 8b 39             	mov    (%rcx),%rdi
    43de:	c5 7a 2c c1          	vcvttss2si %xmm1,%r8d
    43e2:	46 88 44 2f 04       	mov    %r8b,0x4(%rdi,%r13,1)
    43e7:	48 8b 38             	mov    (%rax),%rdi
    43ea:	c5 7a 2c c0          	vcvttss2si %xmm0,%r8d
    43ee:	46 88 44 2f 04       	mov    %r8b,0x4(%rdi,%r13,1)
    43f3:	48 8b 3e             	mov    (%rsi),%rdi
    43f6:	c5 7a 2c c2          	vcvttss2si %xmm2,%r8d
    43fa:	c5 f0 c6 d1 55       	vshufps $0x55,%xmm1,%xmm1,%xmm2
    43ff:	46 88 44 2f 05       	mov    %r8b,0x5(%rdi,%r13,1)
    4404:	48 8b 39             	mov    (%rcx),%rdi
    4407:	c5 7a 2c c2          	vcvttss2si %xmm2,%r8d
    440b:	c5 f8 c6 d0 55       	vshufps $0x55,%xmm0,%xmm0,%xmm2
    4410:	46 88 44 2f 05       	mov    %r8b,0x5(%rdi,%r13,1)
    4415:	48 8b 38             	mov    (%rax),%rdi
    4418:	c5 7a 2c c2          	vcvttss2si %xmm2,%r8d
    441c:	c5 e0 15 d3          	vunpckhps %xmm3,%xmm3,%xmm2
    4420:	c5 e0 c6 db ff       	vshufps $0xff,%xmm3,%xmm3,%xmm3
    4425:	46 88 44 2f 05       	mov    %r8b,0x5(%rdi,%r13,1)
    442a:	48 8b 3e             	mov    (%rsi),%rdi
    442d:	c5 7a 2c c2          	vcvttss2si %xmm2,%r8d
    4431:	c5 f0 15 d1          	vunpckhps %xmm1,%xmm1,%xmm2
    4435:	c5 f0 c6 c9 ff       	vshufps $0xff,%xmm1,%xmm1,%xmm1
    443a:	46 88 44 2f 06       	mov    %r8b,0x6(%rdi,%r13,1)
    443f:	48 8b 39             	mov    (%rcx),%rdi
    4442:	c5 7a 2c c2          	vcvttss2si %xmm2,%r8d
    4446:	c5 f8 15 d0          	vunpckhps %xmm0,%xmm0,%xmm2
    444a:	c5 f8 c6 c0 ff       	vshufps $0xff,%xmm0,%xmm0,%xmm0
    444f:	46 88 44 2f 06       	mov    %r8b,0x6(%rdi,%r13,1)
    4454:	48 8b 38             	mov    (%rax),%rdi
    4457:	c5 7a 2c c2          	vcvttss2si %xmm2,%r8d
    445b:	46 88 44 2f 06       	mov    %r8b,0x6(%rdi,%r13,1)
    4460:	48 8b 36             	mov    (%rsi),%rsi
    4463:	c5 fa 2c fb          	vcvttss2si %xmm3,%edi
    4467:	42 88 7c 2e 07       	mov    %dil,0x7(%rsi,%r13,1)
    446c:	48 8b 09             	mov    (%rcx),%rcx
    446f:	c5 fa 2c f1          	vcvttss2si %xmm1,%esi
    4473:	42 88 74 29 07       	mov    %sil,0x7(%rcx,%r13,1)
    4478:	48 8b 00             	mov    (%rax),%rax
    447b:	c5 fa 2c c8          	vcvttss2si %xmm0,%ecx
    447f:	42 88 4c 28 07       	mov    %cl,0x7(%rax,%r13,1)
    4484:	c5 f8 77             	vzeroupper
    4487:	48 8d 65 d8          	lea    -0x28(%rbp),%rsp
    448b:	5b                   	pop    %rbx
    448c:	41 5c                	pop    %r12
    448e:	41 5d                	pop    %r13
    4490:	41 5e                	pop    %r14
    4492:	41 5f                	pop    %r15
    4494:	5d                   	pop    %rbp
    4495:	c3                   	ret
    4496:	c5 e8 57 d2          	vxorps %xmm2,%xmm2,%xmm2
    449a:	c5 fc 28 e2          	vmovaps %ymm2,%ymm4
    449e:	c5 fc 28 da          	vmovaps %ymm2,%ymm3
    44a2:	e9 05 fe ff ff       	jmp    42ac <simd_kern_8bpc+0xec>
    44a7:	66 0f 1f 84 00 00 00 	nopw   0x0(%rax,%rax,1)
    44ae:	00 00 

00000000000044b0 <simd_kern_8bpc_npl_smt>:
    44b0:	41 56                	push   %r14
    44b2:	41 55                	push   %r13
    44b4:	41 54                	push   %r12
    44b6:	55                   	push   %rbp
    44b7:	53                   	push   %rbx
    44b8:	4c 8b 64 24 40       	mov    0x40(%rsp),%r12
    44bd:	48 39 d6             	cmp    %rdx,%rsi
    44c0:	73 6d                	jae    452f <simd_kern_8bpc_npl_smt+0x7f>
    44c2:	48 8b 47 08          	mov    0x8(%rdi),%rax
    44c6:	48 89 fd             	mov    %rdi,%rbp
    44c9:	49 89 f5             	mov    %rsi,%r13
    44cc:	49 89 d6             	mov    %rdx,%r14
    44cf:	90                   	nop
    44d0:	4c 39 e0             	cmp    %r12,%rax
    44d3:	74 5a                	je     452f <simd_kern_8bpc_npl_smt+0x7f>
    44d5:	31 db                	xor    %ebx,%ebx
    44d7:	66 0f 1f 84 00 00 00 	nopw   0x0(%rax,%rax,1)
    44de:	00 00 
    44e0:	4c 89 64 24 40       	mov    %r12,0x40(%rsp)
    44e5:	48 83 ec 20          	sub    $0x20,%rsp
    44e9:	48 8b 55 38          	mov    0x38(%rbp),%rdx
    44ed:	48 8b 75 30          	mov    0x30(%rbp),%rsi
    44f1:	c5 fa 6f 44 24 50    	vmovdqu 0x50(%rsp),%xmm0
    44f7:	49 89 d8             	mov    %rbx,%r8
    44fa:	4c 89 e9             	mov    %r13,%rcx
    44fd:	48 83 c3 08          	add    $0x8,%rbx
    4501:	48 8b 7d 28          	mov    0x28(%rbp),%rdi
    4505:	4c 89 64 24 10       	mov    %r12,0x10(%rsp)
    450a:	c5 fa 7f 04 24       	vmovdqu %xmm0,(%rsp)
    450f:	e8 ac fc ff ff       	call   41c0 <simd_kern_8bpc>
    4514:	48 8b 45 08          	mov    0x8(%rbp),%rax
    4518:	48 83 c4 20          	add    $0x20,%rsp
    451c:	48 89 c2             	mov    %rax,%rdx
    451f:	4c 29 e2             	sub    %r12,%rdx
    4522:	48 39 d3             	cmp    %rdx,%rbx
    4525:	72 b9                	jb     44e0 <simd_kern_8bpc_npl_smt+0x30>
    4527:	49 ff c5             	inc    %r13
    452a:	4d 39 ee             	cmp    %r13,%r14
    452d:	75 a1                	jne    44d0 <simd_kern_8bpc_npl_smt+0x20>
    452f:	5b                   	pop    %rbx
    4530:	5d                   	pop    %rbp
    4531:	41 5c                	pop    %r12
    4533:	41 5d                	pop    %r13
    4535:	41 5e                	pop    %r14
    4537:	c3                   	ret
    4538:	0f 1f 84 00 00 00 00 	nopl   0x0(%rax,%rax,1)
    453f:	00 

0000000000004540 <simd_kswap_8bpc_npl_smt>:
    4540:	48 8b 47 28          	mov    0x28(%rdi),%rax
    4544:	c5 fa 7e 05 fc ac 03 	vmovq  0x3acfc(%rip),%xmm0        # 3f248 <kr>
    454b:	00 
    454c:	c4 e3 f9 22 05 ea ac 	vpinsrq $0x1,0x3acea(%rip),%xmm0,%xmm0        # 3f240 <kg>
    4553:	03 00 01 
    4556:	48 8b 15 db ac 03 00 	mov    0x3acdb(%rip),%rdx        # 3f238 <kb>
    455d:	48 89 05 e4 ac 03 00 	mov    %rax,0x3ace4(%rip)        # 3f248 <kr>
    4564:	48 8b 47 30          	mov    0x30(%rdi),%rax
    4568:	48 89 05 d1 ac 03 00 	mov    %rax,0x3acd1(%rip)        # 3f240 <kg>
    456f:	48 8b 47 38          	mov    0x38(%rdi),%rax
    4573:	c5 fa 7f 47 28       	vmovdqu %xmm0,0x28(%rdi)
    4578:	48 89 57 38          	mov    %rdx,0x38(%rdi)
    457c:	48 89 05 b5 ac 03 00 	mov    %rax,0x3acb5(%rip)        # 3f238 <kb>
    4583:	c3                   	ret
    4584:	66 66 2e 0f 1f 84 00 	data16 cs nopw 0x0(%rax,%rax,1)
    458b:	00 00 00 00 
    458f:	90                   	nop

0000000000004590 <simd_kern_8bpc_npl>:
    4590:	41 56                	push   %r14
    4592:	41 55                	push   %r13
    4594:	41 54                	push   %r12
    4596:	55                   	push   %rbp
    4597:	53                   	push   %rbx
    4598:	48 89 fb             	mov    %rdi,%rbx
    459b:	48 83 ec 10          	sub    $0x10,%rsp
    459f:	c5 fa 6f 5c 24 48    	vmovdqu 0x48(%rsp),%xmm3
    45a5:	c5 f9 7f 1c 24       	vmovdqa %xmm3,(%rsp)
    45aa:	c4 c3 f9 16 dd 01    	vpextrq $0x1,%xmm3,%r13
    45b0:	c4 c1 f9 7e de       	vmovq  %xmm3,%r14
    45b5:	4c 39 77 10          	cmp    %r14,0x10(%rdi)
    45b9:	0f 84 82 00 00 00    	je     4641 <simd_kern_8bpc_npl+0xb1>
    45bf:	48 8b 47 08          	mov    0x8(%rdi),%rax
    45c3:	45 31 e4             	xor    %r12d,%r12d
    45c6:	66 2e 0f 1f 84 00 00 	cs nopw 0x0(%rax,%rax,1)
    45cd:	00 00 00 
    45d0:	4c 39 e8             	cmp    %r13,%rax
    45d3:	74 6c                	je     4641 <simd_kern_8bpc_npl+0xb1>
    45d5:	31 ed                	xor    %ebp,%ebp
    45d7:	66 0f 1f 84 00 00 00 	nopw   0x0(%rax,%rax,1)
    45de:	00 00 
    45e0:	c5 f9 6f 0c 24       	vmovdqa (%rsp),%xmm1
    45e5:	48 83 ec 20          	sub    $0x20,%rsp
    45e9:	48 8b 53 38          	mov    0x38(%rbx),%rdx
    45ed:	49 89 e8             	mov    %rbp,%r8
    45f0:	48 8b 73 30          	mov    0x30(%rbx),%rsi
    45f4:	48 8b 7b 28          	mov    0x28(%rbx),%rdi
    45f8:	4c 89 e1             	mov    %r12,%rcx
    45fb:	48 83 c5 08          	add    $0x8,%rbp
    45ff:	c5 fa 7f 4c 24 68    	vmovdqu %xmm1,0x68(%rsp)
    4605:	c5 fa 6f 54 24 60    	vmovdqu 0x60(%rsp),%xmm2
    460b:	48 8b 44 24 70       	mov    0x70(%rsp),%rax
    4610:	48 89 44 24 10       	mov    %rax,0x10(%rsp)
    4615:	c5 fa 7f 14 24       	vmovdqu %xmm2,(%rsp)
    461a:	e8 a1 fb ff ff       	call   41c0 <simd_kern_8bpc>
    461f:	48 8b 43 08          	mov    0x8(%rbx),%rax
    4623:	48 83 c4 20          	add    $0x20,%rsp
    4627:	48 89 c2             	mov    %rax,%rdx
    462a:	4c 29 ea             	sub    %r13,%rdx
    462d:	48 39 d5             	cmp    %rdx,%rbp
    4630:	72 ae                	jb     45e0 <simd_kern_8bpc_npl+0x50>
    4632:	48 8b 53 10          	mov    0x10(%rbx),%rdx
    4636:	49 ff c4             	inc    %r12
    4639:	4c 29 f2             	sub    %r14,%rdx
    463c:	49 39 d4             	cmp    %rdx,%r12
    463f:	72 8f                	jb     45d0 <simd_kern_8bpc_npl+0x40>
    4641:	48 8b 43 28          	mov    0x28(%rbx),%rax
    4645:	c5 fa 7e 05 fb ab 03 	vmovq  0x3abfb(%rip),%xmm0        # 3f248 <kr>
    464c:	00 
    464d:	c4 e3 f9 22 05 e9 ab 	vpinsrq $0x1,0x3abe9(%rip),%xmm0,%xmm0        # 3f240 <kg>
    4654:	03 00 01 
    4657:	48 8b 15 da ab 03 00 	mov    0x3abda(%rip),%rdx        # 3f238 <kb>
    465e:	48 89 05 e3 ab 03 00 	mov    %rax,0x3abe3(%rip)        # 3f248 <kr>
    4665:	48 8b 43 30          	mov    0x30(%rbx),%rax
    4669:	48 89 05 d0 ab 03 00 	mov    %rax,0x3abd0(%rip)        # 3f240 <kg>
    4670:	48 8b 43 38          	mov    0x38(%rbx),%rax
    4674:	c5 fa 7f 43 28       	vmovdqu %xmm0,0x28(%rbx)
    4679:	48 89 53 38          	mov    %rdx,0x38(%rbx)
    467d:	48 89 05 b4 ab 03 00 	mov    %rax,0x3abb4(%rip)        # 3f238 <kb>
    4684:	48 83 c4 10          	add    $0x10,%rsp
    4688:	5b                   	pop    %rbx
    4689:	5d                   	pop    %rbp
    468a:	41 5c                	pop    %r12
    468c:	41 5d                	pop    %r13
    468e:	41 5e                	pop    %r14
    4690:	c3                   	ret
    4691:	66 66 2e 0f 1f 84 00 	data16 cs nopw 0x0(%rax,%rax,1)
    4698:	00 00 00 00 
    469c:	0f 1f 40 00          	nopl   0x0(%rax)

00000000000046a0 <kern_8bpc_npl>:
    46a0:	48 8b 35 a1 ab 03 00 	mov    0x3aba1(%rip),%rsi        # 3f248 <kr>
    46a7:	4c 8b 1d 92 ab 03 00 	mov    0x3ab92(%rip),%r11        # 3f240 <kg>
    46ae:	41 57                	push   %r15
    46b0:	48 8b 05 81 ab 03 00 	mov    0x3ab81(%rip),%rax        # 3f238 <kb>
    46b7:	41 56                	push   %r14
    46b9:	41 55                	push   %r13
    46bb:	41 54                	push   %r12
    46bd:	55                   	push   %rbp
    46be:	c4 e1 f9 6e ee       	vmovq  %rsi,%xmm5
    46c3:	53                   	push   %rbx
    46c4:	c4 c3 d1 22 c3 01    	vpinsrq $0x1,%r11,%xmm5,%xmm0
    46ca:	4c 8b 4c 24 40       	mov    0x40(%rsp),%r9
    46cf:	48 8b 54 24 48       	mov    0x48(%rsp),%rdx
    46d4:	4c 39 4f 10          	cmp    %r9,0x10(%rdi)
    46d8:	0f 84 33 02 00 00    	je     4911 <kern_8bpc_npl+0x271>
    46de:	4c 89 c9             	mov    %r9,%rcx
    46e1:	48 8b 5f 08          	mov    0x8(%rdi),%rbx
    46e5:	49 89 d5             	mov    %rdx,%r13
    46e8:	4c 8b 54 24 38       	mov    0x38(%rsp),%r10
    46ed:	48 d1 e9             	shr    %rcx
    46f0:	49 d1 ed             	shr    %r13
    46f3:	c5 f0 57 c9          	vxorps %xmm1,%xmm1,%xmm1
    46f7:	c5 e0 57 db          	vxorps %xmm3,%xmm3,%xmm3
    46fb:	48 c1 e1 03          	shl    $0x3,%rcx
    46ff:	4d 89 ee             	mov    %r13,%r14
    4702:	48 89 44 24 e8       	mov    %rax,-0x18(%rsp)
    4707:	48 01 ce             	add    %rcx,%rsi
    470a:	49 01 cb             	add    %rcx,%r11
    470d:	48 01 c1             	add    %rax,%rcx
    4710:	48 89 74 24 e0       	mov    %rsi,-0x20(%rsp)
    4715:	48 89 4c 24 d8       	mov    %rcx,-0x28(%rsp)
    471a:	31 f6                	xor    %esi,%esi
    471c:	31 c9                	xor    %ecx,%ecx
    471e:	48 39 da             	cmp    %rbx,%rdx
    4721:	0f 84 e5 01 00 00    	je     490c <kern_8bpc_npl+0x26c>
    4727:	31 ed                	xor    %ebp,%ebp
    4729:	48 89 74 24 f0       	mov    %rsi,-0x10(%rsp)
    472e:	66 90                	xchg   %ax,%ax
    4730:	48 8b 5c 24 e0       	mov    -0x20(%rsp),%rbx
    4735:	49 8d 04 2e          	lea    (%r14,%rbp,1),%rax
    4739:	4c 8b 47 28          	mov    0x28(%rdi),%r8
    473d:	48 8b 34 0b          	mov    (%rbx,%rcx,1),%rsi
    4741:	48 01 c6             	add    %rax,%rsi
    4744:	4d 85 c9             	test   %r9,%r9
    4747:	0f 84 0e 02 00 00    	je     495b <kern_8bpc_npl+0x2bb>
    474d:	c5 d8 57 e4          	vxorps %xmm4,%xmm4,%xmm4
    4751:	45 31 e4             	xor    %r12d,%r12d
    4754:	4d 8d 2c 08          	lea    (%r8,%rcx,1),%r13
    4758:	48 85 d2             	test   %rdx,%rdx
    475b:	74 62                	je     47bf <kern_8bpc_npl+0x11f>
    475d:	4c 89 f3             	mov    %r14,%rbx
    4760:	48 89 44 24 d0       	mov    %rax,-0x30(%rsp)
    4765:	66 66 2e 0f 1f 84 00 	data16 cs nopw 0x0(%rax,%rax,1)
    476c:	00 00 00 00 
    4770:	4f 8b 74 e5 00       	mov    0x0(%r13,%r12,8),%r14
    4775:	45 31 c0             	xor    %r8d,%r8d
    4778:	4f 8b 3c e2          	mov    (%r10,%r12,8),%r15
    477c:	49 01 ee             	add    %rbp,%r14
    477f:	90                   	nop
    4780:	c4 81 7a 10 14 87    	vmovss (%r15,%r8,4),%xmm2
    4786:	43 0f b6 04 06       	movzbl (%r14,%r8,1),%eax
    478b:	49 ff c0             	inc    %r8
    478e:	c5 f2 2a f0          	vcvtsi2ss %eax,%xmm1,%xmm6
    4792:	c5 ea 59 d6          	vmulss %xmm6,%xmm2,%xmm2
    4796:	c5 da 58 e2          	vaddss %xmm2,%xmm4,%xmm4
    479a:	4c 39 c2             	cmp    %r8,%rdx
    479d:	75 e1                	jne    4780 <kern_8bpc_npl+0xe0>
    479f:	49 ff c4             	inc    %r12
    47a2:	4d 39 cc             	cmp    %r9,%r12
    47a5:	75 c9                	jne    4770 <kern_8bpc_npl+0xd0>
    47a7:	c5 f8 2f 25 b1 28 03 	vcomiss 0x328b1(%rip),%xmm4        # 37060 <_IO_stdin_used+0x60>
    47ae:	00 
    47af:	48 8b 44 24 d0       	mov    -0x30(%rsp),%rax
    47b4:	49 89 de             	mov    %rbx,%r14
    47b7:	41 b8 ff ff ff ff    	mov    $0xffffffff,%r8d
    47bd:	73 0d                	jae    47cc <kern_8bpc_npl+0x12c>
    47bf:	45 31 c0             	xor    %r8d,%r8d
    47c2:	c5 f8 2f dc          	vcomiss %xmm4,%xmm3
    47c6:	77 04                	ja     47cc <kern_8bpc_npl+0x12c>
    47c8:	c5 7a 2c c4          	vcvttss2si %xmm4,%r8d
    47cc:	44 88 06             	mov    %r8b,(%rsi)
    47cf:	49 8b 34 0b          	mov    (%r11,%rcx,1),%rsi
    47d3:	4c 8b 47 30          	mov    0x30(%rdi),%r8
    47d7:	c5 d8 57 e4          	vxorps %xmm4,%xmm4,%xmm4
    47db:	48 01 c6             	add    %rax,%rsi
    47de:	48 85 d2             	test   %rdx,%rdx
    47e1:	74 6a                	je     484d <kern_8bpc_npl+0x1ad>
    47e3:	45 31 e4             	xor    %r12d,%r12d
    47e6:	4d 8d 2c 08          	lea    (%r8,%rcx,1),%r13
    47ea:	4c 89 f3             	mov    %r14,%rbx
    47ed:	48 89 44 24 d0       	mov    %rax,-0x30(%rsp)
    47f2:	66 66 2e 0f 1f 84 00 	data16 cs nopw 0x0(%rax,%rax,1)
    47f9:	00 00 00 00 
    47fd:	0f 1f 00             	nopl   (%rax)
    4800:	4f 8b 74 e5 00       	mov    0x0(%r13,%r12,8),%r14
    4805:	45 31 c0             	xor    %r8d,%r8d
    4808:	4f 8b 3c e2          	mov    (%r10,%r12,8),%r15
    480c:	49 01 ee             	add    %rbp,%r14
    480f:	90                   	nop
    4810:	c4 81 7a 10 14 87    	vmovss (%r15,%r8,4),%xmm2
    4816:	43 0f b6 04 06       	movzbl (%r14,%r8,1),%eax
    481b:	49 ff c0             	inc    %r8
    481e:	c5 f2 2a f8          	vcvtsi2ss %eax,%xmm1,%xmm7
    4822:	c5 ea 59 d7          	vmulss %xmm7,%xmm2,%xmm2
    4826:	c5 da 58 e2          	vaddss %xmm2,%xmm4,%xmm4
    482a:	4c 39 c2             	cmp    %r8,%rdx
    482d:	75 e1                	jne    4810 <kern_8bpc_npl+0x170>
    482f:	49 ff c4             	inc    %r12
    4832:	4d 39 cc             	cmp    %r9,%r12
    4835:	75 c9                	jne    4800 <kern_8bpc_npl+0x160>
    4837:	c5 f8 2f 25 21 28 03 	vcomiss 0x32821(%rip),%xmm4        # 37060 <_IO_stdin_used+0x60>
    483e:	00 
    483f:	48 8b 44 24 d0       	mov    -0x30(%rsp),%rax
    4844:	49 89 de             	mov    %rbx,%r14
    4847:	0f 83 f9 00 00 00    	jae    4946 <kern_8bpc_npl+0x2a6>
    484d:	45 31 c0             	xor    %r8d,%r8d
    4850:	c5 f8 2f dc          	vcomiss %xmm4,%xmm3
    4854:	77 04                	ja     485a <kern_8bpc_npl+0x1ba>
    4856:	c5 7a 2c c4          	vcvttss2si %xmm4,%r8d
    485a:	48 8b 5c 24 d8       	mov    -0x28(%rsp),%rbx
    485f:	44 88 06             	mov    %r8b,(%rsi)
    4862:	48 8b 77 38          	mov    0x38(%rdi),%rsi
    4866:	48 03 04 0b          	add    (%rbx,%rcx,1),%rax
    486a:	c5 d8 57 e4          	vxorps %xmm4,%xmm4,%xmm4
    486e:	48 85 d2             	test   %rdx,%rdx
    4871:	74 53                	je     48c6 <kern_8bpc_npl+0x226>
    4873:	45 31 ed             	xor    %r13d,%r13d
    4876:	4c 8d 3c 0e          	lea    (%rsi,%rcx,1),%r15
    487a:	66 0f 1f 44 00 00    	nopw   0x0(%rax,%rax,1)
    4880:	4f 8b 04 ef          	mov    (%r15,%r13,8),%r8
    4884:	4b 8b 1c ea          	mov    (%r10,%r13,8),%rbx
    4888:	31 f6                	xor    %esi,%esi
    488a:	49 01 e8             	add    %rbp,%r8
    488d:	0f 1f 00             	nopl   (%rax)
    4890:	c5 fa 10 14 b3       	vmovss (%rbx,%rsi,4),%xmm2
    4895:	45 0f b6 24 30       	movzbl (%r8,%rsi,1),%r12d
    489a:	48 ff c6             	inc    %rsi
    489d:	c4 c1 72 2a ec       	vcvtsi2ss %r12d,%xmm1,%xmm5
    48a2:	c5 ea 59 d5          	vmulss %xmm5,%xmm2,%xmm2
    48a6:	c5 da 58 e2          	vaddss %xmm2,%xmm4,%xmm4
    48aa:	48 39 f2             	cmp    %rsi,%rdx
    48ad:	75 e1                	jne    4890 <kern_8bpc_npl+0x1f0>
    48af:	49 ff c5             	inc    %r13
    48b2:	4d 39 e9             	cmp    %r13,%r9
    48b5:	75 c9                	jne    4880 <kern_8bpc_npl+0x1e0>
    48b7:	c5 f8 2f 25 a1 27 03 	vcomiss 0x327a1(%rip),%xmm4        # 37060 <_IO_stdin_used+0x60>
    48be:	00 
    48bf:	be ff ff ff ff       	mov    $0xffffffff,%esi
    48c4:	73 0c                	jae    48d2 <kern_8bpc_npl+0x232>
    48c6:	31 f6                	xor    %esi,%esi
    48c8:	c5 f8 2f dc          	vcomiss %xmm4,%xmm3
    48cc:	77 04                	ja     48d2 <kern_8bpc_npl+0x232>
    48ce:	c5 fa 2c f4          	vcvttss2si %xmm4,%esi
    48d2:	40 88 30             	mov    %sil,(%rax)
    48d5:	48 8b 5f 08          	mov    0x8(%rdi),%rbx
    48d9:	48 ff c5             	inc    %rbp
    48dc:	48 89 d8             	mov    %rbx,%rax
    48df:	48 29 d0             	sub    %rdx,%rax
    48e2:	48 39 c5             	cmp    %rax,%rbp
    48e5:	0f 82 45 fe ff ff    	jb     4730 <kern_8bpc_npl+0x90>
    48eb:	48 8b 74 24 f0       	mov    -0x10(%rsp),%rsi
    48f0:	48 8b 47 10          	mov    0x10(%rdi),%rax
    48f4:	48 ff c6             	inc    %rsi
    48f7:	4c 29 c8             	sub    %r9,%rax
    48fa:	48 39 c6             	cmp    %rax,%rsi
    48fd:	73 0d                	jae    490c <kern_8bpc_npl+0x26c>
    48ff:	48 83 c1 08          	add    $0x8,%rcx
    4903:	48 39 da             	cmp    %rbx,%rdx
    4906:	0f 85 1b fe ff ff    	jne    4727 <kern_8bpc_npl+0x87>
    490c:	48 8b 44 24 e8       	mov    -0x18(%rsp),%rax
    4911:	48 8b 57 28          	mov    0x28(%rdi),%rdx
    4915:	5b                   	pop    %rbx
    4916:	5d                   	pop    %rbp
    4917:	41 5c                	pop    %r12
    4919:	41 5d                	pop    %r13
    491b:	41 5e                	pop    %r14
    491d:	41 5f                	pop    %r15
    491f:	48 89 15 22 a9 03 00 	mov    %rdx,0x3a922(%rip)        # 3f248 <kr>
    4926:	48 8b 57 30          	mov    0x30(%rdi),%rdx
    492a:	c5 fa 7f 47 28       	vmovdqu %xmm0,0x28(%rdi)
    492f:	48 89 15 0a a9 03 00 	mov    %rdx,0x3a90a(%rip)        # 3f240 <kg>
    4936:	48 8b 57 38          	mov    0x38(%rdi),%rdx
    493a:	48 89 47 38          	mov    %rax,0x38(%rdi)
    493e:	48 89 15 f3 a8 03 00 	mov    %rdx,0x3a8f3(%rip)        # 3f238 <kb>
    4945:	c3                   	ret
    4946:	48 8b 5c 24 d8       	mov    -0x28(%rsp),%rbx
    494b:	c6 06 ff             	movb   $0xff,(%rsi)
    494e:	48 8b 77 38          	mov    0x38(%rdi),%rsi
    4952:	48 03 04 0b          	add    (%rbx,%rcx,1),%rax
    4956:	e9 0f ff ff ff       	jmp    486a <kern_8bpc_npl+0x1ca>
    495b:	c6 06 00             	movb   $0x0,(%rsi)
    495e:	48 8b 5c 24 d8       	mov    -0x28(%rsp),%rbx
    4963:	49 8b 34 0b          	mov    (%r11,%rcx,1),%rsi
    4967:	c6 04 06 00          	movb   $0x0,(%rsi,%rax,1)
    496b:	31 f6                	xor    %esi,%esi
    496d:	48 03 04 0b          	add    (%rbx,%rcx,1),%rax
    4971:	e9 5c ff ff ff       	jmp    48d2 <kern_8bpc_npl+0x232>
    4976:	66 2e 0f 1f 84 00 00 	cs nopw 0x0(%rax,%rax,1)
    497d:	00 00 00 

0000000000004980 <kern_init>:
    4980:	80 3d a9 a8 03 00 00 	cmpb   $0x0,0x3a8a9(%rip)        # 3f230 <initialized>
    4987:	74 07                	je     4990 <kern_init+0x10>
    4989:	c3                   	ret
    498a:	66 0f 1f 44 00 00    	nopw   0x0(%rax,%rax,1)
    4990:	41 57                	push   %r15
    4992:	41 56                	push   %r14
    4994:	41 55                	push   %r13
    4996:	41 54                	push   %r12
    4998:	49 89 fc             	mov    %rdi,%r12
    499b:	55                   	push   %rbp
    499c:	53                   	push   %rbx
    499d:	48 8d 1c fd 00 00 00 	lea    0x0(,%rdi,8),%rbx
    49a4:	00 
    49a5:	48 89 f5             	mov    %rsi,%rbp
    49a8:	48 83 ec 08          	sub    $0x8,%rsp
    49ac:	48 89 3d 9d a8 03 00 	mov    %rdi,0x3a89d(%rip)        # 3f250 <ih>
    49b3:	48 89 df             	mov    %rbx,%rdi
    49b6:	c6 05 73 a8 03 00 01 	movb   $0x1,0x3a873(%rip)        # 3f230 <initialized>
    49bd:	e8 6e d8 ff ff       	call   2230 <malloc@plt>
    49c2:	48 89 df             	mov    %rbx,%rdi
    49c5:	49 89 c5             	mov    %rax,%r13
    49c8:	48 89 05 79 a8 03 00 	mov    %rax,0x3a879(%rip)        # 3f248 <kr>
    49cf:	e8 5c d8 ff ff       	call   2230 <malloc@plt>
    49d4:	48 89 df             	mov    %rbx,%rdi
    49d7:	49 89 c6             	mov    %rax,%r14
    49da:	48 89 05 5f a8 03 00 	mov    %rax,0x3a85f(%rip)        # 3f240 <kg>
    49e1:	e8 4a d8 ff ff       	call   2230 <malloc@plt>
    49e6:	49 89 c7             	mov    %rax,%r15
    49e9:	48 89 05 48 a8 03 00 	mov    %rax,0x3a848(%rip)        # 3f238 <kb>
    49f0:	4d 85 e4             	test   %r12,%r12
    49f3:	74 57                	je     4a4c <kern_init+0xcc>
    49f5:	48 89 ee             	mov    %rbp,%rsi
    49f8:	31 db                	xor    %ebx,%ebx
    49fa:	48 83 ce 07          	or     $0x7,%rsi
    49fe:	48 8d 6e 01          	lea    0x1(%rsi),%rbp
    4a02:	66 66 2e 0f 1f 84 00 	data16 cs nopw 0x0(%rax,%rax,1)
    4a09:	00 00 00 00 
    4a0d:	0f 1f 00             	nopl   (%rax)
    4a10:	48 89 ee             	mov    %rbp,%rsi
    4a13:	bf 20 00 00 00       	mov    $0x20,%edi
    4a18:	e8 d3 d8 ff ff       	call   22f0 <aligned_alloc@plt>
    4a1d:	48 89 ee             	mov    %rbp,%rsi
    4a20:	bf 20 00 00 00       	mov    $0x20,%edi
    4a25:	49 89 44 dd 00       	mov    %rax,0x0(%r13,%rbx,8)
    4a2a:	e8 c1 d8 ff ff       	call   22f0 <aligned_alloc@plt>
    4a2f:	48 89 ee             	mov    %rbp,%rsi
    4a32:	bf 20 00 00 00       	mov    $0x20,%edi
    4a37:	49 89 04 de          	mov    %rax,(%r14,%rbx,8)
    4a3b:	e8 b0 d8 ff ff       	call   22f0 <aligned_alloc@plt>
    4a40:	49 89 04 df          	mov    %rax,(%r15,%rbx,8)
    4a44:	48 ff c3             	inc    %rbx
    4a47:	49 39 dc             	cmp    %rbx,%r12
    4a4a:	75 c4                	jne    4a10 <kern_init+0x90>
    4a4c:	48 83 c4 08          	add    $0x8,%rsp
    4a50:	5b                   	pop    %rbx
    4a51:	5d                   	pop    %rbp
    4a52:	41 5c                	pop    %r12
    4a54:	41 5d                	pop    %r13
    4a56:	41 5e                	pop    %r14
    4a58:	41 5f                	pop    %r15
    4a5a:	c3                   	ret
    4a5b:	0f 1f 44 00 00       	nopl   0x0(%rax,%rax,1)

0000000000004a60 <kern_free>:
    4a60:	80 3d c9 a7 03 00 00 	cmpb   $0x0,0x3a7c9(%rip)        # 3f230 <initialized>
    4a67:	0f 84 83 00 00 00    	je     4af0 <kern_free+0x90>
    4a6d:	41 56                	push   %r14
    4a6f:	4c 8b 35 da a7 03 00 	mov    0x3a7da(%rip),%r14        # 3f250 <ih>
    4a76:	41 55                	push   %r13
    4a78:	4c 8b 2d b9 a7 03 00 	mov    0x3a7b9(%rip),%r13        # 3f238 <kb>
    4a7f:	41 54                	push   %r12
    4a81:	4c 8b 25 b8 a7 03 00 	mov    0x3a7b8(%rip),%r12        # 3f240 <kg>
    4a88:	55                   	push   %rbp
    4a89:	48 8b 2d b8 a7 03 00 	mov    0x3a7b8(%rip),%rbp        # 3f248 <kr>
    4a90:	53                   	push   %rbx
    4a91:	31 db                	xor    %ebx,%ebx
    4a93:	4d 85 f6             	test   %r14,%r14
    4a96:	74 2d                	je     4ac5 <kern_free+0x65>
    4a98:	0f 1f 84 00 00 00 00 	nopl   0x0(%rax,%rax,1)
    4a9f:	00 
    4aa0:	48 8b 7c dd 00       	mov    0x0(%rbp,%rbx,8),%rdi
    4aa5:	e8 86 d5 ff ff       	call   2030 <free@plt>
    4aaa:	49 8b 3c dc          	mov    (%r12,%rbx,8),%rdi
    4aae:	e8 7d d5 ff ff       	call   2030 <free@plt>
    4ab3:	49 8b 7c dd 00       	mov    0x0(%r13,%rbx,8),%rdi
    4ab8:	48 ff c3             	inc    %rbx
    4abb:	e8 70 d5 ff ff       	call   2030 <free@plt>
    4ac0:	4c 39 f3             	cmp    %r14,%rbx
    4ac3:	75 db                	jne    4aa0 <kern_free+0x40>
    4ac5:	48 89 ef             	mov    %rbp,%rdi
    4ac8:	e8 63 d5 ff ff       	call   2030 <free@plt>
    4acd:	4c 89 e7             	mov    %r12,%rdi
    4ad0:	e8 5b d5 ff ff       	call   2030 <free@plt>
    4ad5:	5b                   	pop    %rbx
    4ad6:	4c 89 ef             	mov    %r13,%rdi
    4ad9:	5d                   	pop    %rbp
    4ada:	41 5c                	pop    %r12
    4adc:	41 5d                	pop    %r13
    4ade:	41 5e                	pop    %r14
    4ae0:	e9 4b d5 ff ff       	jmp    2030 <free@plt>
    4ae5:	66 66 2e 0f 1f 84 00 	data16 cs nopw 0x0(%rax,%rax,1)
    4aec:	00 00 00 00 
    4af0:	c3                   	ret
    4af1:	66 2e 0f 1f 84 00 00 	cs nopw 0x0(%rax,%rax,1)
    4af8:	00 00 00 
    4afb:	0f 1f 44 00 00       	nopl   0x0(%rax,%rax,1)

0000000000004b00 <simd_subis_8bpc_npl>:
    4b00:	48 83 7f 10 00       	cmpq   $0x0,0x10(%rdi)
    4b05:	49 89 fa             	mov    %rdi,%r10
    4b08:	0f 84 b1 00 00 00    	je     4bbf <simd_subis_8bpc_npl+0xbf>
    4b0e:	48 8b 57 08          	mov    0x8(%rdi),%rdx
    4b12:	45 31 db             	xor    %r11d,%r11d
    4b15:	40 0f b6 ce          	movzbl %sil,%ecx
    4b19:	0f 1f 80 00 00 00 00 	nopl   0x0(%rax)
    4b20:	49 8b 72 28          	mov    0x28(%r10),%rsi
    4b24:	49 8b 7a 30          	mov    0x30(%r10),%rdi
    4b28:	4a 8d 04 dd 00 00 00 	lea    0x0(,%r11,8),%rax
    4b2f:	00 
    4b30:	49 89 d1             	mov    %rdx,%r9
    4b33:	4d 8b 42 38          	mov    0x38(%r10),%r8
    4b37:	49 83 e1 e0          	and    $0xffffffffffffffe0,%r9
    4b3b:	48 8b 34 06          	mov    (%rsi,%rax,1),%rsi
    4b3f:	48 8b 3c 07          	mov    (%rdi,%rax,1),%rdi
    4b43:	4d 8b 04 00          	mov    (%r8,%rax,1),%r8
    4b47:	31 c0                	xor    %eax,%eax
    4b49:	48 83 fa 1f          	cmp    $0x1f,%rdx
    4b4d:	76 5e                	jbe    4bad <simd_subis_8bpc_npl+0xad>
    4b4f:	90                   	nop
    4b50:	48 83 c0 20          	add    $0x20,%rax
    4b54:	4c 39 c8             	cmp    %r9,%rax
    4b57:	72 f7                	jb     4b50 <simd_subis_8bpc_npl+0x50>
    4b59:	48 39 d0             	cmp    %rdx,%rax
    4b5c:	73 54                	jae    4bb2 <simd_subis_8bpc_npl+0xb2>
    4b5e:	66 90                	xchg   %ax,%ax
    4b60:	44 0f b6 0c 06       	movzbl (%rsi,%rax,1),%r9d
    4b65:	89 ca                	mov    %ecx,%edx
    4b67:	44 29 ca             	sub    %r9d,%edx
    4b6a:	41 b9 00 00 00 00    	mov    $0x0,%r9d
    4b70:	41 0f 48 d1          	cmovs  %r9d,%edx
    4b74:	88 14 06             	mov    %dl,(%rsi,%rax,1)
    4b77:	44 0f b6 0c 07       	movzbl (%rdi,%rax,1),%r9d
    4b7c:	89 ca                	mov    %ecx,%edx
    4b7e:	44 29 ca             	sub    %r9d,%edx
    4b81:	41 b9 00 00 00 00    	mov    $0x0,%r9d
    4b87:	41 0f 48 d1          	cmovs  %r9d,%edx
    4b8b:	88 14 07             	mov    %dl,(%rdi,%rax,1)
    4b8e:	45 0f b6 0c 00       	movzbl (%r8,%rax,1),%r9d
    4b93:	89 ca                	mov    %ecx,%edx
    4b95:	44 29 ca             	sub    %r9d,%edx
    4b98:	41 b9 00 00 00 00    	mov    $0x0,%r9d
    4b9e:	41 0f 48 d1          	cmovs  %r9d,%edx
    4ba2:	41 88 14 00          	mov    %dl,(%r8,%rax,1)
    4ba6:	49 8b 52 08          	mov    0x8(%r10),%rdx
    4baa:	48 ff c0             	inc    %rax
    4bad:	48 39 d0             	cmp    %rdx,%rax
    4bb0:	72 ae                	jb     4b60 <simd_subis_8bpc_npl+0x60>
    4bb2:	49 ff c3             	inc    %r11
    4bb5:	4d 3b 5a 10          	cmp    0x10(%r10),%r11
    4bb9:	0f 82 61 ff ff ff    	jb     4b20 <simd_subis_8bpc_npl+0x20>
    4bbf:	c3                   	ret

0000000000004bc0 <subis_8bpc_npl>:
    4bc0:	48 83 7f 10 00       	cmpq   $0x0,0x10(%rdi)
    4bc5:	0f 84 c2 00 00 00    	je     4c8d <subis_8bpc_npl+0xcd>
    4bcb:	48 89 fa             	mov    %rdi,%rdx
    4bce:	48 8b 7f 08          	mov    0x8(%rdi),%rdi
    4bd2:	45 31 db             	xor    %r11d,%r11d
    4bd5:	44 0f b6 ce          	movzbl %sil,%r9d
    4bd9:	48 85 ff             	test   %rdi,%rdi
    4bdc:	0f 84 ac 00 00 00    	je     4c8e <subis_8bpc_npl+0xce>
    4be2:	53                   	push   %rbx
    4be3:	66 66 2e 0f 1f 84 00 	data16 cs nopw 0x0(%rax,%rax,1)
    4bea:	00 00 00 00 
    4bee:	66 90                	xchg   %ax,%ax
    4bf0:	4a 8d 0c dd 00 00 00 	lea    0x0(,%r11,8),%rcx
    4bf7:	00 
    4bf8:	31 c0                	xor    %eax,%eax
    4bfa:	66 0f 1f 44 00 00    	nopw   0x0(%rax,%rax,1)
    4c00:	48 8b 72 28          	mov    0x28(%rdx),%rsi
    4c04:	4c 8b 14 0e          	mov    (%rsi,%rcx,1),%r10
    4c08:	48 8b 72 30          	mov    0x30(%rdx),%rsi
    4c0c:	48 8b 34 0e          	mov    (%rsi,%rcx,1),%rsi
    4c10:	49 01 c2             	add    %rax,%r10
    4c13:	41 0f b6 1a          	movzbl (%r10),%ebx
    4c17:	44 0f b6 04 06       	movzbl (%rsi,%rax,1),%r8d
    4c1c:	48 8b 72 38          	mov    0x38(%rdx),%rsi
    4c20:	48 8b 34 0e          	mov    (%rsi,%rcx,1),%rsi
    4c24:	0f b6 3c 06          	movzbl (%rsi,%rax,1),%edi
    4c28:	44 89 ce             	mov    %r9d,%esi
    4c2b:	29 de                	sub    %ebx,%esi
    4c2d:	bb 00 00 00 00       	mov    $0x0,%ebx
    4c32:	0f 48 f3             	cmovs  %ebx,%esi
    4c35:	41 88 32             	mov    %sil,(%r10)
    4c38:	48 8b 72 30          	mov    0x30(%rdx),%rsi
    4c3c:	4c 8b 14 0e          	mov    (%rsi,%rcx,1),%r10
    4c40:	44 89 ce             	mov    %r9d,%esi
    4c43:	44 29 c6             	sub    %r8d,%esi
    4c46:	41 b8 00 00 00 00    	mov    $0x0,%r8d
    4c4c:	41 0f 48 f0          	cmovs  %r8d,%esi
    4c50:	41 88 34 02          	mov    %sil,(%r10,%rax,1)
    4c54:	48 8b 72 38          	mov    0x38(%rdx),%rsi
    4c58:	4c 8b 04 0e          	mov    (%rsi,%rcx,1),%r8
    4c5c:	44 89 ce             	mov    %r9d,%esi
    4c5f:	29 fe                	sub    %edi,%esi
    4c61:	bf 00 00 00 00       	mov    $0x0,%edi
    4c66:	0f 48 f7             	cmovs  %edi,%esi
    4c69:	41 88 34 00          	mov    %sil,(%r8,%rax,1)
    4c6d:	48 8b 7a 08          	mov    0x8(%rdx),%rdi
    4c71:	48 ff c0             	inc    %rax
    4c74:	48 39 f8             	cmp    %rdi,%rax
    4c77:	72 87                	jb     4c00 <subis_8bpc_npl+0x40>
    4c79:	49 ff c3             	inc    %r11
    4c7c:	4c 3b 5a 10          	cmp    0x10(%rdx),%r11
    4c80:	73 09                	jae    4c8b <subis_8bpc_npl+0xcb>
    4c82:	48 85 ff             	test   %rdi,%rdi
    4c85:	0f 85 65 ff ff ff    	jne    4bf0 <subis_8bpc_npl+0x30>
    4c8b:	5b                   	pop    %rbx
    4c8c:	c3                   	ret
    4c8d:	c3                   	ret
    4c8e:	c3                   	ret
    4c8f:	90                   	nop

0000000000004c90 <cliparse>:
    4c90:	41 57                	push   %r15
    4c92:	41 56                	push   %r14
    4c94:	41 55                	push   %r13
    4c96:	41 54                	push   %r12
    4c98:	55                   	push   %rbp
    4c99:	53                   	push   %rbx
    4c9a:	48 83 ec 38          	sub    $0x38,%rsp
    4c9e:	83 ff 01             	cmp    $0x1,%edi
    4ca1:	0f 8e 0a 0d 00 00    	jle    59b1 <cliparse+0xd21>
    4ca7:	89 fd                	mov    %edi,%ebp
    4ca9:	bf 20 00 00 00       	mov    $0x20,%edi
    4cae:	49 89 f4             	mov    %rsi,%r12
    4cb1:	e8 7a d5 ff ff       	call   2230 <malloc@plt>
    4cb6:	48 85 c0             	test   %rax,%rax
    4cb9:	0f 84 96 10 00 00    	je     5d55 <cliparse+0x10c5>
    4cbf:	49 8b 7c 24 08       	mov    0x8(%r12),%rdi
    4cc4:	48 89 44 24 08       	mov    %rax,0x8(%rsp)
    4cc9:	e8 e2 0d 03 00       	call   35ab0 <img_fread>
    4cce:	4c 8b 44 24 08       	mov    0x8(%rsp),%r8
    4cd3:	49 89 00             	mov    %rax,(%r8)
    4cd6:	48 85 c0             	test   %rax,%rax
    4cd9:	0f 84 4f 10 00 00    	je     5d2e <cliparse+0x109e>
    4cdf:	83 fd 02             	cmp    $0x2,%ebp
    4ce2:	0f 84 90 00 00 00    	je     4d78 <cliparse+0xe8>
    4ce8:	8d 45 fd             	lea    -0x3(%rbp),%eax
    4ceb:	49 8d 5c 24 10       	lea    0x10(%r12),%rbx
    4cf0:	45 31 f6             	xor    %r14d,%r14d
    4cf3:	45 31 ed             	xor    %r13d,%r13d
    4cf6:	4d 8d 7c c4 18       	lea    0x18(%r12,%rax,8),%r15
    4cfb:	48 89 5c 24 08       	mov    %rbx,0x8(%rsp)
    4d00:	4c 89 c5             	mov    %r8,%rbp
    4d03:	66 66 2e 0f 1f 84 00 	data16 cs nopw 0x0(%rax,%rax,1)
    4d0a:	00 00 00 00 
    4d0e:	66 90                	xchg   %ax,%ax
    4d10:	4c 8b 23             	mov    (%rbx),%r12
    4d13:	48 8d 35 85 23 03 00 	lea    0x32385(%rip),%rsi        # 3709f <_IO_stdin_used+0x9f>
    4d1a:	4c 89 e7             	mov    %r12,%rdi
    4d1d:	e8 ee d5 ff ff       	call   2310 <strstr@plt>
    4d22:	48 85 c0             	test   %rax,%rax
    4d25:	74 36                	je     4d5d <cliparse+0xcd>
    4d27:	48 8d 35 75 23 03 00 	lea    0x32375(%rip),%rsi        # 370a3 <_IO_stdin_used+0xa3>
    4d2e:	4c 89 e7             	mov    %r12,%rdi
    4d31:	e8 da d5 ff ff       	call   2310 <strstr@plt>
    4d36:	48 8d 35 6b 23 03 00 	lea    0x3236b(%rip),%rsi        # 370a8 <_IO_stdin_used+0xa8>
    4d3d:	4c 89 e7             	mov    %r12,%rdi
    4d40:	48 85 c0             	test   %rax,%rax
    4d43:	b8 01 00 00 00       	mov    $0x1,%eax
    4d48:	44 0f 45 e8          	cmovne %eax,%r13d
    4d4c:	e8 bf d5 ff ff       	call   2310 <strstr@plt>
    4d51:	48 85 c0             	test   %rax,%rax
    4d54:	b8 01 00 00 00       	mov    $0x1,%eax
    4d59:	44 0f 45 f0          	cmovne %eax,%r14d
    4d5d:	48 83 c3 08          	add    $0x8,%rbx
    4d61:	4c 39 fb             	cmp    %r15,%rbx
    4d64:	75 aa                	jne    4d10 <cliparse+0x80>
    4d66:	48 8b 5c 24 08       	mov    0x8(%rsp),%rbx
    4d6b:	49 89 e8             	mov    %rbp,%r8
    4d6e:	45 84 f6             	test   %r14b,%r14b
    4d71:	75 2d                	jne    4da0 <cliparse+0x110>
    4d73:	45 84 ed             	test   %r13b,%r13b
    4d76:	75 31                	jne    4da9 <cliparse+0x119>
    4d78:	48 8b 0d a1 a4 03 00 	mov    0x3a4a1(%rip),%rcx        # 3f220 <stderr@GLIBC_2.2.5>
    4d7f:	48 8d 3d 0a 2c 03 00 	lea    0x32c0a(%rip),%rdi        # 37990 <_IO_stdin_used+0x990>
    4d86:	ba 27 00 00 00       	mov    $0x27,%edx
    4d8b:	be 01 00 00 00       	mov    $0x1,%esi
    4d90:	e8 4b d5 ff ff       	call   22e0 <fwrite@plt>
    4d95:	bf 01 00 00 00       	mov    $0x1,%edi
    4d9a:	e8 31 d5 ff ff       	call   22d0 <exit@plt>
    4d9f:	90                   	nop
    4da0:	45 84 ed             	test   %r13b,%r13b
    4da3:	0f 85 5e 0f 00 00    	jne    5d07 <cliparse+0x1077>
    4da9:	49 c7 40 18 00 00 00 	movq   $0x0,0x18(%r8)
    4db0:	00 
    4db1:	66 41 c7 40 10 00 00 	movw   $0x0,0x10(%r8)
    4db8:	48 89 da             	mov    %rbx,%rdx
    4dbb:	eb 40                	jmp    4dfd <cliparse+0x16d>
    4dbd:	0f 1f 00             	nopl   (%rax)
    4dc0:	83 f9 2d             	cmp    $0x2d,%ecx
    4dc3:	75 2b                	jne    4df0 <cliparse+0x160>
    4dc5:	80 78 01 73          	cmpb   $0x73,0x1(%rax)
    4dc9:	75 0a                	jne    4dd5 <cliparse+0x145>
    4dcb:	80 78 02 32          	cmpb   $0x32,0x2(%rax)
    4dcf:	0f 84 3b 09 00 00    	je     5710 <cliparse+0xa80>
    4dd5:	83 f9 2d             	cmp    $0x2d,%ecx
    4dd8:	75 16                	jne    4df0 <cliparse+0x160>
    4dda:	80 78 01 73          	cmpb   $0x73,0x1(%rax)
    4dde:	75 10                	jne    4df0 <cliparse+0x160>
    4de0:	80 78 02 33          	cmpb   $0x33,0x2(%rax)
    4de4:	74 3a                	je     4e20 <cliparse+0x190>
    4de6:	66 2e 0f 1f 84 00 00 	cs nopw 0x0(%rax,%rax,1)
    4ded:	00 00 00 
    4df0:	48 83 c2 08          	add    $0x8,%rdx
    4df4:	4c 39 fa             	cmp    %r15,%rdx
    4df7:	0f 84 23 09 00 00    	je     5720 <cliparse+0xa90>
    4dfd:	48 8b 02             	mov    (%rdx),%rax
    4e00:	0f b6 08             	movzbl (%rax),%ecx
    4e03:	83 f9 2d             	cmp    $0x2d,%ecx
    4e06:	75 e8                	jne    4df0 <cliparse+0x160>
    4e08:	80 78 01 73          	cmpb   $0x73,0x1(%rax)
    4e0c:	75 b2                	jne    4dc0 <cliparse+0x130>
    4e0e:	80 78 02 30          	cmpb   $0x30,0x2(%rax)
    4e12:	75 ac                	jne    4dc0 <cliparse+0x130>
    4e14:	0f b7 05 23 2c 03 00 	movzwl 0x32c23(%rip),%eax        # 37a3e <_IO_stdin_used+0xa3e>
    4e1b:	66 41 89 40 10       	mov    %ax,0x10(%r8)
    4e20:	4c 89 7c 24 08       	mov    %r15,0x8(%rsp)
    4e25:	49 c7 40 08 00 00 00 	movq   $0x0,0x8(%r8)
    4e2c:	00 
    4e2d:	4c 8d 2d b1 22 03 00 	lea    0x322b1(%rip),%r13        # 370e5 <_IO_stdin_used+0xe5>
    4e34:	4c 8d 35 b1 22 03 00 	lea    0x322b1(%rip),%r14        # 370ec <_IO_stdin_used+0xec>
    4e3b:	4d 89 c7             	mov    %r8,%r15
    4e3e:	66 90                	xchg   %ax,%ax
    4e40:	48 8b 2b             	mov    (%rbx),%rbp
    4e43:	44 0f b6 65 00       	movzbl 0x0(%rbp),%r12d
    4e48:	41 83 fc 2d          	cmp    $0x2d,%r12d
    4e4c:	0f 85 9e 00 00 00    	jne    4ef0 <cliparse+0x260>
    4e52:	80 7d 01 61          	cmpb   $0x61,0x1(%rbp)
    4e56:	0f 85 94 00 00 00    	jne    4ef0 <cliparse+0x260>
    4e5c:	80 7d 02 3d          	cmpb   $0x3d,0x2(%rbp)
    4e60:	0f 85 8a 00 00 00    	jne    4ef0 <cliparse+0x260>
    4e66:	48 89 ef             	mov    %rbp,%rdi
    4e69:	be 3d 00 00 00       	mov    $0x3d,%esi
    4e6e:	e8 9d d2 ff ff       	call   2110 <strchr@plt>
    4e73:	ba 0a 00 00 00       	mov    $0xa,%edx
    4e78:	31 f6                	xor    %esi,%esi
    4e7a:	48 8d 78 01          	lea    0x1(%rax),%rdi
    4e7e:	e8 7d d3 ff ff       	call   2200 <strtol@plt>
    4e83:	bf 28 00 00 00       	mov    $0x28,%edi
    4e88:	48 89 c5             	mov    %rax,%rbp
    4e8b:	e8 a0 d3 ff ff       	call   2230 <malloc@plt>
    4e90:	49 8b 57 08          	mov    0x8(%r15),%rdx
    4e94:	48 c7 00 00 00 00 00 	movq   $0x0,(%rax)
    4e9b:	89 68 08             	mov    %ebp,0x8(%rax)
    4e9e:	48 c7 40 20 00 00 00 	movq   $0x0,0x20(%rax)
    4ea5:	00 
    4ea6:	48 85 d2             	test   %rdx,%rdx
    4ea9:	0f 84 d1 06 00 00    	je     5580 <cliparse+0x8f0>
    4eaf:	90                   	nop
    4eb0:	48 89 d1             	mov    %rdx,%rcx
    4eb3:	48 8b 52 20          	mov    0x20(%rdx),%rdx
    4eb7:	48 85 d2             	test   %rdx,%rdx
    4eba:	75 f4                	jne    4eb0 <cliparse+0x220>
    4ebc:	48 89 41 20          	mov    %rax,0x20(%rcx)
    4ec0:	48 8b 44 24 08       	mov    0x8(%rsp),%rax
    4ec5:	48 83 c3 08          	add    $0x8,%rbx
    4ec9:	48 39 c3             	cmp    %rax,%rbx
    4ecc:	0f 85 6e ff ff ff    	jne    4e40 <cliparse+0x1b0>
    4ed2:	4d 89 f8             	mov    %r15,%r8
    4ed5:	48 83 c4 38          	add    $0x38,%rsp
    4ed9:	4c 89 c0             	mov    %r8,%rax
    4edc:	5b                   	pop    %rbx
    4edd:	5d                   	pop    %rbp
    4ede:	41 5c                	pop    %r12
    4ee0:	41 5d                	pop    %r13
    4ee2:	41 5e                	pop    %r14
    4ee4:	41 5f                	pop    %r15
    4ee6:	c3                   	ret
    4ee7:	66 0f 1f 84 00 00 00 	nopw   0x0(%rax,%rax,1)
    4eee:	00 00 
    4ef0:	ba 06 00 00 00       	mov    $0x6,%edx
    4ef5:	4c 89 ee             	mov    %r13,%rsi
    4ef8:	48 89 ef             	mov    %rbp,%rdi
    4efb:	e8 60 d1 ff ff       	call   2060 <strncmp@plt>
    4f00:	85 c0                	test   %eax,%eax
    4f02:	0f 84 5e ff ff ff    	je     4e66 <cliparse+0x1d6>
    4f08:	41 83 fc 2d          	cmp    $0x2d,%r12d
    4f0c:	0f 85 7e 00 00 00    	jne    4f90 <cliparse+0x300>
    4f12:	80 7d 01 73          	cmpb   $0x73,0x1(%rbp)
    4f16:	75 78                	jne    4f90 <cliparse+0x300>
    4f18:	80 7d 02 3d          	cmpb   $0x3d,0x2(%rbp)
    4f1c:	75 72                	jne    4f90 <cliparse+0x300>
    4f1e:	48 89 ef             	mov    %rbp,%rdi
    4f21:	be 3d 00 00 00       	mov    $0x3d,%esi
    4f26:	e8 e5 d1 ff ff       	call   2110 <strchr@plt>
    4f2b:	ba 0a 00 00 00       	mov    $0xa,%edx
    4f30:	31 f6                	xor    %esi,%esi
    4f32:	48 8d 78 01          	lea    0x1(%rax),%rdi
    4f36:	e8 c5 d2 ff ff       	call   2200 <strtol@plt>
    4f3b:	bf 28 00 00 00       	mov    $0x28,%edi
    4f40:	48 89 c5             	mov    %rax,%rbp
    4f43:	e8 e8 d2 ff ff       	call   2230 <malloc@plt>
    4f48:	48 8b 0d f1 2a 03 00 	mov    0x32af1(%rip),%rcx        # 37a40 <_IO_stdin_used+0xa40>
    4f4f:	49 8b 57 08          	mov    0x8(%r15),%rdx
    4f53:	89 68 08             	mov    %ebp,0x8(%rax)
    4f56:	48 c7 40 20 00 00 00 	movq   $0x0,0x20(%rax)
    4f5d:	00 
    4f5e:	48 89 08             	mov    %rcx,(%rax)
    4f61:	48 85 d2             	test   %rdx,%rdx
    4f64:	0f 84 16 06 00 00    	je     5580 <cliparse+0x8f0>
    4f6a:	66 0f 1f 44 00 00    	nopw   0x0(%rax,%rax,1)
    4f70:	48 89 d1             	mov    %rdx,%rcx
    4f73:	48 8b 52 20          	mov    0x20(%rdx),%rdx
    4f77:	48 85 d2             	test   %rdx,%rdx
    4f7a:	75 f4                	jne    4f70 <cliparse+0x2e0>
    4f7c:	e9 3b ff ff ff       	jmp    4ebc <cliparse+0x22c>
    4f81:	66 66 2e 0f 1f 84 00 	data16 cs nopw 0x0(%rax,%rax,1)
    4f88:	00 00 00 00 
    4f8c:	0f 1f 40 00          	nopl   0x0(%rax)
    4f90:	ba 06 00 00 00       	mov    $0x6,%edx
    4f95:	4c 89 f6             	mov    %r14,%rsi
    4f98:	48 89 ef             	mov    %rbp,%rdi
    4f9b:	e8 c0 d0 ff ff       	call   2060 <strncmp@plt>
    4fa0:	85 c0                	test   %eax,%eax
    4fa2:	0f 84 76 ff ff ff    	je     4f1e <cliparse+0x28e>
    4fa8:	ba 04 00 00 00       	mov    $0x4,%edx
    4fad:	48 8d 35 3f 21 03 00 	lea    0x3213f(%rip),%rsi        # 370f3 <_IO_stdin_used+0xf3>
    4fb4:	48 89 ef             	mov    %rbp,%rdi
    4fb7:	e8 a4 d0 ff ff       	call   2060 <strncmp@plt>
    4fbc:	85 c0                	test   %eax,%eax
    4fbe:	0f 84 cc 05 00 00    	je     5590 <cliparse+0x900>
    4fc4:	ba 07 00 00 00       	mov    $0x7,%edx
    4fc9:	48 8d 35 28 21 03 00 	lea    0x32128(%rip),%rsi        # 370f8 <_IO_stdin_used+0xf8>
    4fd0:	48 89 ef             	mov    %rbp,%rdi
    4fd3:	e8 88 d0 ff ff       	call   2060 <strncmp@plt>
    4fd8:	85 c0                	test   %eax,%eax
    4fda:	0f 84 b0 05 00 00    	je     5590 <cliparse+0x900>
    4fe0:	41 83 fc 2d          	cmp    $0x2d,%r12d
    4fe4:	75 7a                	jne    5060 <cliparse+0x3d0>
    4fe6:	80 7d 01 6d          	cmpb   $0x6d,0x1(%rbp)
    4fea:	75 74                	jne    5060 <cliparse+0x3d0>
    4fec:	80 7d 02 3d          	cmpb   $0x3d,0x2(%rbp)
    4ff0:	75 6e                	jne    5060 <cliparse+0x3d0>
    4ff2:	48 89 ef             	mov    %rbp,%rdi
    4ff5:	be 3d 00 00 00       	mov    $0x3d,%esi
    4ffa:	e8 11 d1 ff ff       	call   2110 <strchr@plt>
    4fff:	ba 0a 00 00 00       	mov    $0xa,%edx
    5004:	31 f6                	xor    %esi,%esi
    5006:	48 8d 78 01          	lea    0x1(%rax),%rdi
    500a:	e8 f1 d1 ff ff       	call   2200 <strtol@plt>
    500f:	bf 28 00 00 00       	mov    $0x28,%edi
    5014:	48 89 c5             	mov    %rax,%rbp
    5017:	e8 14 d2 ff ff       	call   2230 <malloc@plt>
    501c:	48 8b 15 2d 2a 03 00 	mov    0x32a2d(%rip),%rdx        # 37a50 <_IO_stdin_used+0xa50>
    5023:	89 68 08             	mov    %ebp,0x8(%rax)
    5026:	48 c7 40 20 00 00 00 	movq   $0x0,0x20(%rax)
    502d:	00 
    502e:	48 89 10             	mov    %rdx,(%rax)
    5031:	49 8b 57 08          	mov    0x8(%r15),%rdx
    5035:	48 85 d2             	test   %rdx,%rdx
    5038:	0f 84 42 05 00 00    	je     5580 <cliparse+0x8f0>
    503e:	66 90                	xchg   %ax,%ax
    5040:	48 89 d1             	mov    %rdx,%rcx
    5043:	48 8b 52 20          	mov    0x20(%rdx),%rdx
    5047:	48 85 d2             	test   %rdx,%rdx
    504a:	75 f4                	jne    5040 <cliparse+0x3b0>
    504c:	e9 6b fe ff ff       	jmp    4ebc <cliparse+0x22c>
    5051:	66 66 2e 0f 1f 84 00 	data16 cs nopw 0x0(%rax,%rax,1)
    5058:	00 00 00 00 
    505c:	0f 1f 40 00          	nopl   0x0(%rax)
    5060:	ba 06 00 00 00       	mov    $0x6,%edx
    5065:	48 8d 35 94 20 03 00 	lea    0x32094(%rip),%rsi        # 37100 <_IO_stdin_used+0x100>
    506c:	48 89 ef             	mov    %rbp,%rdi
    506f:	e8 ec cf ff ff       	call   2060 <strncmp@plt>
    5074:	85 c0                	test   %eax,%eax
    5076:	0f 84 76 ff ff ff    	je     4ff2 <cliparse+0x362>
    507c:	41 83 fc 2d          	cmp    $0x2d,%r12d
    5080:	75 7e                	jne    5100 <cliparse+0x470>
    5082:	80 7d 01 64          	cmpb   $0x64,0x1(%rbp)
    5086:	75 78                	jne    5100 <cliparse+0x470>
    5088:	80 7d 02 3d          	cmpb   $0x3d,0x2(%rbp)
    508c:	75 72                	jne    5100 <cliparse+0x470>
    508e:	48 89 ef             	mov    %rbp,%rdi
    5091:	be 3d 00 00 00       	mov    $0x3d,%esi
    5096:	e8 75 d0 ff ff       	call   2110 <strchr@plt>
    509b:	ba 0a 00 00 00       	mov    $0xa,%edx
    50a0:	31 f6                	xor    %esi,%esi
    50a2:	48 8d 78 01          	lea    0x1(%rax),%rdi
    50a6:	e8 55 d1 ff ff       	call   2200 <strtol@plt>
    50ab:	bf 28 00 00 00       	mov    $0x28,%edi
    50b0:	48 89 c5             	mov    %rax,%rbp
    50b3:	e8 78 d1 ff ff       	call   2230 <malloc@plt>
    50b8:	48 8b 15 99 29 03 00 	mov    0x32999(%rip),%rdx        # 37a58 <_IO_stdin_used+0xa58>
    50bf:	89 68 08             	mov    %ebp,0x8(%rax)
    50c2:	48 c7 40 20 00 00 00 	movq   $0x0,0x20(%rax)
    50c9:	00 
    50ca:	48 89 10             	mov    %rdx,(%rax)
    50cd:	49 8b 57 08          	mov    0x8(%r15),%rdx
    50d1:	48 85 d2             	test   %rdx,%rdx
    50d4:	0f 84 a6 04 00 00    	je     5580 <cliparse+0x8f0>
    50da:	66 0f 1f 44 00 00    	nopw   0x0(%rax,%rax,1)
    50e0:	48 89 d1             	mov    %rdx,%rcx
    50e3:	48 8b 52 20          	mov    0x20(%rdx),%rdx
    50e7:	48 85 d2             	test   %rdx,%rdx
    50ea:	75 f4                	jne    50e0 <cliparse+0x450>
    50ec:	e9 cb fd ff ff       	jmp    4ebc <cliparse+0x22c>
    50f1:	66 66 2e 0f 1f 84 00 	data16 cs nopw 0x0(%rax,%rax,1)
    50f8:	00 00 00 00 
    50fc:	0f 1f 40 00          	nopl   0x0(%rax)
    5100:	ba 06 00 00 00       	mov    $0x6,%edx
    5105:	48 8d 35 fb 1f 03 00 	lea    0x31ffb(%rip),%rsi        # 37107 <_IO_stdin_used+0x107>
    510c:	48 89 ef             	mov    %rbp,%rdi
    510f:	e8 4c cf ff ff       	call   2060 <strncmp@plt>
    5114:	85 c0                	test   %eax,%eax
    5116:	0f 84 72 ff ff ff    	je     508e <cliparse+0x3fe>
    511c:	ba 04 00 00 00       	mov    $0x4,%edx
    5121:	48 8d 35 e6 1f 03 00 	lea    0x31fe6(%rip),%rsi        # 3710e <_IO_stdin_used+0x10e>
    5128:	48 89 ef             	mov    %rbp,%rdi
    512b:	e8 30 cf ff ff       	call   2060 <strncmp@plt>
    5130:	85 c0                	test   %eax,%eax
    5132:	0f 84 c8 04 00 00    	je     5600 <cliparse+0x970>
    5138:	ba 07 00 00 00       	mov    $0x7,%edx
    513d:	48 8d 35 cf 1f 03 00 	lea    0x31fcf(%rip),%rsi        # 37113 <_IO_stdin_used+0x113>
    5144:	48 89 ef             	mov    %rbp,%rdi
    5147:	e8 14 cf ff ff       	call   2060 <strncmp@plt>
    514c:	85 c0                	test   %eax,%eax
    514e:	0f 84 ac 04 00 00    	je     5600 <cliparse+0x970>
    5154:	ba 04 00 00 00       	mov    $0x4,%edx
    5159:	48 8d 35 bb 1f 03 00 	lea    0x31fbb(%rip),%rsi        # 3711b <_IO_stdin_used+0x11b>
    5160:	48 89 ef             	mov    %rbp,%rdi
    5163:	e8 f8 ce ff ff       	call   2060 <strncmp@plt>
    5168:	85 c0                	test   %eax,%eax
    516a:	0f 84 00 05 00 00    	je     5670 <cliparse+0x9e0>
    5170:	ba 0f 00 00 00       	mov    $0xf,%edx
    5175:	48 8d 35 a4 1f 03 00 	lea    0x31fa4(%rip),%rsi        # 37120 <_IO_stdin_used+0x120>
    517c:	48 89 ef             	mov    %rbp,%rdi
    517f:	e8 dc ce ff ff       	call   2060 <strncmp@plt>
    5184:	85 c0                	test   %eax,%eax
    5186:	0f 84 e4 04 00 00    	je     5670 <cliparse+0x9e0>
    518c:	ba 04 00 00 00       	mov    $0x4,%edx
    5191:	48 8d 35 98 1f 03 00 	lea    0x31f98(%rip),%rsi        # 37130 <_IO_stdin_used+0x130>
    5198:	48 89 ef             	mov    %rbp,%rdi
    519b:	e8 c0 ce ff ff       	call   2060 <strncmp@plt>
    51a0:	85 c0                	test   %eax,%eax
    51a2:	0f 84 88 03 00 00    	je     5530 <cliparse+0x8a0>
    51a8:	ba 0f 00 00 00       	mov    $0xf,%edx
    51ad:	48 8d 35 81 1f 03 00 	lea    0x31f81(%rip),%rsi        # 37135 <_IO_stdin_used+0x135>
    51b4:	48 89 ef             	mov    %rbp,%rdi
    51b7:	e8 a4 ce ff ff       	call   2060 <strncmp@plt>
    51bc:	85 c0                	test   %eax,%eax
    51be:	0f 84 6c 03 00 00    	je     5530 <cliparse+0x8a0>
    51c4:	ba 05 00 00 00       	mov    $0x5,%edx
    51c9:	48 8d 35 75 1f 03 00 	lea    0x31f75(%rip),%rsi        # 37145 <_IO_stdin_used+0x145>
    51d0:	48 89 ef             	mov    %rbp,%rdi
    51d3:	e8 88 ce ff ff       	call   2060 <strncmp@plt>
    51d8:	85 c0                	test   %eax,%eax
    51da:	0f 84 70 07 00 00    	je     5950 <cliparse+0xcc0>
    51e0:	ba 10 00 00 00       	mov    $0x10,%edx
    51e5:	48 8d 35 5f 1f 03 00 	lea    0x31f5f(%rip),%rsi        # 3714b <_IO_stdin_used+0x14b>
    51ec:	48 89 ef             	mov    %rbp,%rdi
    51ef:	e8 6c ce ff ff       	call   2060 <strncmp@plt>
    51f4:	85 c0                	test   %eax,%eax
    51f6:	0f 84 54 07 00 00    	je     5950 <cliparse+0xcc0>
    51fc:	41 83 fc 2d          	cmp    $0x2d,%r12d
    5200:	75 7e                	jne    5280 <cliparse+0x5f0>
    5202:	80 7d 01 70          	cmpb   $0x70,0x1(%rbp)
    5206:	75 78                	jne    5280 <cliparse+0x5f0>
    5208:	80 7d 02 3d          	cmpb   $0x3d,0x2(%rbp)
    520c:	75 72                	jne    5280 <cliparse+0x5f0>
    520e:	48 89 ef             	mov    %rbp,%rdi
    5211:	be 3d 00 00 00       	mov    $0x3d,%esi
    5216:	e8 f5 ce ff ff       	call   2110 <strchr@plt>
    521b:	ba 0a 00 00 00       	mov    $0xa,%edx
    5220:	31 f6                	xor    %esi,%esi
    5222:	48 8d 78 01          	lea    0x1(%rax),%rdi
    5226:	e8 d5 cf ff ff       	call   2200 <strtol@plt>
    522b:	bf 28 00 00 00       	mov    $0x28,%edi
    5230:	48 89 c5             	mov    %rax,%rbp
    5233:	e8 f8 cf ff ff       	call   2230 <malloc@plt>
    5238:	48 8b 15 41 28 03 00 	mov    0x32841(%rip),%rdx        # 37a80 <_IO_stdin_used+0xa80>
    523f:	89 68 08             	mov    %ebp,0x8(%rax)
    5242:	48 c7 40 20 00 00 00 	movq   $0x0,0x20(%rax)
    5249:	00 
    524a:	48 89 10             	mov    %rdx,(%rax)
    524d:	49 8b 57 08          	mov    0x8(%r15),%rdx
    5251:	48 85 d2             	test   %rdx,%rdx
    5254:	0f 84 26 03 00 00    	je     5580 <cliparse+0x8f0>
    525a:	66 0f 1f 44 00 00    	nopw   0x0(%rax,%rax,1)
    5260:	48 89 d1             	mov    %rdx,%rcx
    5263:	48 8b 52 20          	mov    0x20(%rdx),%rdx
    5267:	48 85 d2             	test   %rdx,%rdx
    526a:	75 f4                	jne    5260 <cliparse+0x5d0>
    526c:	e9 4b fc ff ff       	jmp    4ebc <cliparse+0x22c>
    5271:	66 66 2e 0f 1f 84 00 	data16 cs nopw 0x0(%rax,%rax,1)
    5278:	00 00 00 00 
    527c:	0f 1f 40 00          	nopl   0x0(%rax)
    5280:	ba 06 00 00 00       	mov    $0x6,%edx
    5285:	48 8d 35 d0 1e 03 00 	lea    0x31ed0(%rip),%rsi        # 3715c <_IO_stdin_used+0x15c>
    528c:	48 89 ef             	mov    %rbp,%rdi
    528f:	e8 cc cd ff ff       	call   2060 <strncmp@plt>
    5294:	85 c0                	test   %eax,%eax
    5296:	0f 84 72 ff ff ff    	je     520e <cliparse+0x57e>
    529c:	0f b6 45 00          	movzbl 0x0(%rbp),%eax
    52a0:	89 44 24 10          	mov    %eax,0x10(%rsp)
    52a4:	83 f8 2d             	cmp    $0x2d,%eax
    52a7:	0f 84 53 05 00 00    	je     5800 <cliparse+0xb70>
    52ad:	ba 05 00 00 00       	mov    $0x5,%edx
    52b2:	48 8d 35 aa 1e 03 00 	lea    0x31eaa(%rip),%rsi        # 37163 <_IO_stdin_used+0x163>
    52b9:	48 89 ef             	mov    %rbp,%rdi
    52bc:	e8 9f cd ff ff       	call   2060 <strncmp@plt>
    52c1:	85 c0                	test   %eax,%eax
    52c3:	0f 84 41 05 00 00    	je     580a <cliparse+0xb7a>
    52c9:	ba 05 00 00 00       	mov    $0x5,%edx
    52ce:	48 8d 35 94 1e 03 00 	lea    0x31e94(%rip),%rsi        # 37169 <_IO_stdin_used+0x169>
    52d5:	48 89 ef             	mov    %rbp,%rdi
    52d8:	e8 83 cd ff ff       	call   2060 <strncmp@plt>
    52dd:	85 c0                	test   %eax,%eax
    52df:	0f 84 bc 08 00 00    	je     5ba1 <cliparse+0xf11>
    52e5:	ba 06 00 00 00       	mov    $0x6,%edx
    52ea:	48 8d 35 7e 1e 03 00 	lea    0x31e7e(%rip),%rsi        # 3716f <_IO_stdin_used+0x16f>
    52f1:	48 89 ef             	mov    %rbp,%rdi
    52f4:	e8 67 cd ff ff       	call   2060 <strncmp@plt>
    52f9:	85 c0                	test   %eax,%eax
    52fb:	0f 84 e0 08 00 00    	je     5be1 <cliparse+0xf51>
    5301:	ba 06 00 00 00       	mov    $0x6,%edx
    5306:	48 8d 35 69 1e 03 00 	lea    0x31e69(%rip),%rsi        # 37176 <_IO_stdin_used+0x176>
    530d:	48 89 ef             	mov    %rbp,%rdi
    5310:	e8 4b cd ff ff       	call   2060 <strncmp@plt>
    5315:	85 c0                	test   %eax,%eax
    5317:	0f 84 28 09 00 00    	je     5c45 <cliparse+0xfb5>
    531d:	83 7c 24 10 2d       	cmpl   $0x2d,0x10(%rsp)
    5322:	0f 84 29 05 00 00    	je     5851 <cliparse+0xbc1>
    5328:	ba 05 00 00 00       	mov    $0x5,%edx
    532d:	48 8d 35 49 1e 03 00 	lea    0x31e49(%rip),%rsi        # 3717d <_IO_stdin_used+0x17d>
    5334:	48 89 ef             	mov    %rbp,%rdi
    5337:	e8 24 cd ff ff       	call   2060 <strncmp@plt>
    533c:	85 c0                	test   %eax,%eax
    533e:	0f 84 17 05 00 00    	je     585b <cliparse+0xbcb>
    5344:	41 83 fc 2d          	cmp    $0x2d,%r12d
    5348:	75 0a                	jne    5354 <cliparse+0x6c4>
    534a:	80 7d 01 67          	cmpb   $0x67,0x1(%rbp)
    534e:	0f 84 09 08 00 00    	je     5b5d <cliparse+0xecd>
    5354:	ba 0b 00 00 00       	mov    $0xb,%edx
    5359:	48 8d 35 23 1e 03 00 	lea    0x31e23(%rip),%rsi        # 37183 <_IO_stdin_used+0x183>
    5360:	48 89 ef             	mov    %rbp,%rdi
    5363:	e8 f8 cc ff ff       	call   2060 <strncmp@plt>
    5368:	85 c0                	test   %eax,%eax
    536a:	0f 84 f7 07 00 00    	je     5b67 <cliparse+0xed7>
    5370:	41 83 fc 2d          	cmp    $0x2d,%r12d
    5374:	0f 85 37 05 00 00    	jne    58b1 <cliparse+0xc21>
    537a:	80 7d 01 6b          	cmpb   $0x6b,0x1(%rbp)
    537e:	0f 85 2d 05 00 00    	jne    58b1 <cliparse+0xc21>
    5384:	80 7d 02 3d          	cmpb   $0x3d,0x2(%rbp)
    5388:	0f 85 23 05 00 00    	jne    58b1 <cliparse+0xc21>
    538e:	49 8b 07             	mov    (%r15),%rax
    5391:	48 8b 70 08          	mov    0x8(%rax),%rsi
    5395:	48 8b 78 10          	mov    0x10(%rax),%rdi
    5399:	e8 e2 f5 ff ff       	call   4980 <kern_init>
    539e:	48 8b 3b             	mov    (%rbx),%rdi
    53a1:	be 3d 00 00 00       	mov    $0x3d,%esi
    53a6:	e8 65 cd ff ff       	call   2110 <strchr@plt>
    53ab:	bf 28 00 00 00       	mov    $0x28,%edi
    53b0:	48 8d 68 01          	lea    0x1(%rax),%rbp
    53b4:	e8 77 ce ff ff       	call   2230 <malloc@plt>
    53b9:	48 8d 35 d7 1d 03 00 	lea    0x31dd7(%rip),%rsi        # 37197 <_IO_stdin_used+0x197>
    53c0:	49 89 c4             	mov    %rax,%r12
    53c3:	48 8b 05 ee 26 03 00 	mov    0x326ee(%rip),%rax        # 37ab8 <_IO_stdin_used+0xab8>
    53ca:	48 89 ef             	mov    %rbp,%rdi
    53cd:	49 c7 44 24 20 00 00 	movq   $0x0,0x20(%r12)
    53d4:	00 00 
    53d6:	49 8d 4c 24 18       	lea    0x18(%r12),%rcx
    53db:	49 8d 54 24 10       	lea    0x10(%r12),%rdx
    53e0:	49 89 04 24          	mov    %rax,(%r12)
    53e4:	31 c0                	xor    %eax,%eax
    53e6:	e8 55 ce ff ff       	call   2240 <__isoc99_sscanf@plt>
    53eb:	49 83 7c 24 10 00    	cmpq   $0x0,0x10(%r12)
    53f1:	0f 84 c2 08 00 00    	je     5cb9 <cliparse+0x1029>
    53f7:	49 83 7c 24 18 00    	cmpq   $0x0,0x18(%r12)
    53fd:	0f 84 b6 08 00 00    	je     5cb9 <cliparse+0x1029>
    5403:	48 8d 35 b8 28 03 00 	lea    0x328b8(%rip),%rsi        # 37cc2 <_IO_stdin_used+0xcc2>
    540a:	48 89 ef             	mov    %rbp,%rdi
    540d:	e8 9e ce ff ff       	call   22b0 <fopen@plt>
    5412:	48 89 44 24 18       	mov    %rax,0x18(%rsp)
    5417:	48 85 c0             	test   %rax,%rax
    541a:	0f 84 c0 08 00 00    	je     5ce0 <cliparse+0x1050>
    5420:	49 8b 6c 24 10       	mov    0x10(%r12),%rbp
    5425:	48 8d 0c ed 00 00 00 	lea    0x0(,%rbp,8),%rcx
    542c:	00 
    542d:	48 89 cf             	mov    %rcx,%rdi
    5430:	48 89 4c 24 10       	mov    %rcx,0x10(%rsp)
    5435:	e8 f6 cd ff ff       	call   2230 <malloc@plt>
    543a:	48 85 ed             	test   %rbp,%rbp
    543d:	48 8b 4c 24 10       	mov    0x10(%rsp),%rcx
    5442:	48 89 c2             	mov    %rax,%rdx
    5445:	49 89 44 24 08       	mov    %rax,0x8(%r12)
    544a:	0f 84 a2 00 00 00    	je     54f2 <cliparse+0x862>
    5450:	49 8b 44 24 18       	mov    0x18(%r12),%rax
    5455:	48 01 d1             	add    %rdx,%rcx
    5458:	4c 89 64 24 10       	mov    %r12,0x10(%rsp)
    545d:	48 89 5c 24 20       	mov    %rbx,0x20(%rsp)
    5462:	48 89 cd             	mov    %rcx,%rbp
    5465:	48 89 d3             	mov    %rdx,%rbx
    5468:	48 c1 e0 02          	shl    $0x2,%rax
    546c:	49 89 c4             	mov    %rax,%r12
    546f:	90                   	nop
    5470:	4c 89 e7             	mov    %r12,%rdi
    5473:	48 83 c3 08          	add    $0x8,%rbx
    5477:	e8 b4 cd ff ff       	call   2230 <malloc@plt>
    547c:	48 89 43 f8          	mov    %rax,-0x8(%rbx)
    5480:	48 39 dd             	cmp    %rbx,%rbp
    5483:	75 eb                	jne    5470 <cliparse+0x7e0>
    5485:	4c 8b 64 24 10       	mov    0x10(%rsp),%r12
    548a:	31 c9                	xor    %ecx,%ecx
    548c:	4c 89 7c 24 28       	mov    %r15,0x28(%rsp)
    5491:	48 8b 5c 24 18       	mov    0x18(%rsp),%rbx
    5496:	66 2e 0f 1f 84 00 00 	cs nopw 0x0(%rax,%rax,1)
    549d:	00 00 00 
    54a0:	48 8d 2c cd 00 00 00 	lea    0x0(,%rcx,8),%rbp
    54a7:	00 
    54a8:	45 31 ff             	xor    %r15d,%r15d
    54ab:	48 89 4c 24 10       	mov    %rcx,0x10(%rsp)
    54b0:	49 8b 44 24 08       	mov    0x8(%r12),%rax
    54b5:	48 8d 35 ee 1c 03 00 	lea    0x31cee(%rip),%rsi        # 371aa <_IO_stdin_used+0x1aa>
    54bc:	48 89 df             	mov    %rbx,%rdi
    54bf:	48 8b 04 28          	mov    (%rax,%rbp,1),%rax
    54c3:	4a 8d 14 b8          	lea    (%rax,%r15,4),%rdx
    54c7:	31 c0                	xor    %eax,%eax
    54c9:	49 ff c7             	inc    %r15
    54cc:	e8 af cb ff ff       	call   2080 <__isoc99_fscanf@plt>
    54d1:	49 8b 44 24 10       	mov    0x10(%r12),%rax
    54d6:	49 39 c7             	cmp    %rax,%r15
    54d9:	72 d5                	jb     54b0 <cliparse+0x820>
    54db:	48 8b 4c 24 10       	mov    0x10(%rsp),%rcx
    54e0:	48 ff c1             	inc    %rcx
    54e3:	48 39 c1             	cmp    %rax,%rcx
    54e6:	72 b8                	jb     54a0 <cliparse+0x810>
    54e8:	48 8b 5c 24 20       	mov    0x20(%rsp),%rbx
    54ed:	4c 8b 7c 24 28       	mov    0x28(%rsp),%r15
    54f2:	48 8b 7c 24 18       	mov    0x18(%rsp),%rdi
    54f7:	e8 f4 cb ff ff       	call   20f0 <fclose@plt>
    54fc:	49 8b 47 08          	mov    0x8(%r15),%rax
    5500:	48 85 c0             	test   %rax,%rax
    5503:	0f 84 9e 07 00 00    	je     5ca7 <cliparse+0x1017>
    5509:	0f 1f 80 00 00 00 00 	nopl   0x0(%rax)
    5510:	48 89 c2             	mov    %rax,%rdx
    5513:	48 8b 40 20          	mov    0x20(%rax),%rax
    5517:	48 85 c0             	test   %rax,%rax
    551a:	75 f4                	jne    5510 <cliparse+0x880>
    551c:	4c 89 62 20          	mov    %r12,0x20(%rdx)
    5520:	e9 9b f9 ff ff       	jmp    4ec0 <cliparse+0x230>
    5525:	66 66 2e 0f 1f 84 00 	data16 cs nopw 0x0(%rax,%rax,1)
    552c:	00 00 00 00 
    5530:	48 89 ef             	mov    %rbp,%rdi
    5533:	be 3d 00 00 00       	mov    $0x3d,%esi
    5538:	e8 d3 cb ff ff       	call   2110 <strchr@plt>
    553d:	ba 0a 00 00 00       	mov    $0xa,%edx
    5542:	31 f6                	xor    %esi,%esi
    5544:	48 8d 78 01          	lea    0x1(%rax),%rdi
    5548:	e8 b3 cc ff ff       	call   2200 <strtol@plt>
    554d:	bf 28 00 00 00       	mov    $0x28,%edi
    5552:	48 89 c5             	mov    %rax,%rbp
    5555:	e8 d6 cc ff ff       	call   2230 <malloc@plt>
    555a:	48 8b 15 0f 25 03 00 	mov    0x3250f(%rip),%rdx        # 37a70 <_IO_stdin_used+0xa70>
    5561:	89 68 08             	mov    %ebp,0x8(%rax)
    5564:	48 c7 40 20 00 00 00 	movq   $0x0,0x20(%rax)
    556b:	00 
    556c:	48 89 10             	mov    %rdx,(%rax)
    556f:	49 8b 57 08          	mov    0x8(%r15),%rdx
    5573:	48 85 d2             	test   %rdx,%rdx
    5576:	0f 85 64 01 00 00    	jne    56e0 <cliparse+0xa50>
    557c:	0f 1f 40 00          	nopl   0x0(%rax)
    5580:	49 89 47 08          	mov    %rax,0x8(%r15)
    5584:	e9 37 f9 ff ff       	jmp    4ec0 <cliparse+0x230>
    5589:	0f 1f 80 00 00 00 00 	nopl   0x0(%rax)
    5590:	48 89 ef             	mov    %rbp,%rdi
    5593:	be 3d 00 00 00       	mov    $0x3d,%esi
    5598:	e8 73 cb ff ff       	call   2110 <strchr@plt>
    559d:	ba 0a 00 00 00       	mov    $0xa,%edx
    55a2:	31 f6                	xor    %esi,%esi
    55a4:	48 8d 78 01          	lea    0x1(%rax),%rdi
    55a8:	e8 53 cc ff ff       	call   2200 <strtol@plt>
    55ad:	bf 28 00 00 00       	mov    $0x28,%edi
    55b2:	48 89 c5             	mov    %rax,%rbp
    55b5:	e8 76 cc ff ff       	call   2230 <malloc@plt>
    55ba:	48 8b 0d 87 24 03 00 	mov    0x32487(%rip),%rcx        # 37a48 <_IO_stdin_used+0xa48>
    55c1:	49 8b 57 08          	mov    0x8(%r15),%rdx
    55c5:	89 68 08             	mov    %ebp,0x8(%rax)
    55c8:	48 c7 40 20 00 00 00 	movq   $0x0,0x20(%rax)
    55cf:	00 
    55d0:	48 89 08             	mov    %rcx,(%rax)
    55d3:	48 85 d2             	test   %rdx,%rdx
    55d6:	74 a8                	je     5580 <cliparse+0x8f0>
    55d8:	0f 1f 84 00 00 00 00 	nopl   0x0(%rax,%rax,1)
    55df:	00 
    55e0:	48 89 d1             	mov    %rdx,%rcx
    55e3:	48 8b 52 20          	mov    0x20(%rdx),%rdx
    55e7:	48 85 d2             	test   %rdx,%rdx
    55ea:	75 f4                	jne    55e0 <cliparse+0x950>
    55ec:	e9 cb f8 ff ff       	jmp    4ebc <cliparse+0x22c>
    55f1:	66 66 2e 0f 1f 84 00 	data16 cs nopw 0x0(%rax,%rax,1)
    55f8:	00 00 00 00 
    55fc:	0f 1f 40 00          	nopl   0x0(%rax)
    5600:	48 89 ef             	mov    %rbp,%rdi
    5603:	be 3d 00 00 00       	mov    $0x3d,%esi
    5608:	e8 03 cb ff ff       	call   2110 <strchr@plt>
    560d:	ba 0a 00 00 00       	mov    $0xa,%edx
    5612:	31 f6                	xor    %esi,%esi
    5614:	48 8d 78 01          	lea    0x1(%rax),%rdi
    5618:	e8 e3 cb ff ff       	call   2200 <strtol@plt>
    561d:	bf 28 00 00 00       	mov    $0x28,%edi
    5622:	48 89 c5             	mov    %rax,%rbp
    5625:	e8 06 cc ff ff       	call   2230 <malloc@plt>
    562a:	48 8b 15 2f 24 03 00 	mov    0x3242f(%rip),%rdx        # 37a60 <_IO_stdin_used+0xa60>
    5631:	89 68 08             	mov    %ebp,0x8(%rax)
    5634:	48 c7 40 20 00 00 00 	movq   $0x0,0x20(%rax)
    563b:	00 
    563c:	48 89 10             	mov    %rdx,(%rax)
    563f:	49 8b 57 08          	mov    0x8(%r15),%rdx
    5643:	48 85 d2             	test   %rdx,%rdx
    5646:	0f 84 34 ff ff ff    	je     5580 <cliparse+0x8f0>
    564c:	0f 1f 40 00          	nopl   0x0(%rax)
    5650:	48 89 d1             	mov    %rdx,%rcx
    5653:	48 8b 52 20          	mov    0x20(%rdx),%rdx
    5657:	48 85 d2             	test   %rdx,%rdx
    565a:	75 f4                	jne    5650 <cliparse+0x9c0>
    565c:	e9 5b f8 ff ff       	jmp    4ebc <cliparse+0x22c>
    5661:	66 66 2e 0f 1f 84 00 	data16 cs nopw 0x0(%rax,%rax,1)
    5668:	00 00 00 00 
    566c:	0f 1f 40 00          	nopl   0x0(%rax)
    5670:	48 89 ef             	mov    %rbp,%rdi
    5673:	be 3d 00 00 00       	mov    $0x3d,%esi
    5678:	e8 93 ca ff ff       	call   2110 <strchr@plt>
    567d:	ba 0a 00 00 00       	mov    $0xa,%edx
    5682:	31 f6                	xor    %esi,%esi
    5684:	48 8d 78 01          	lea    0x1(%rax),%rdi
    5688:	e8 73 cb ff ff       	call   2200 <strtol@plt>
    568d:	bf 28 00 00 00       	mov    $0x28,%edi
    5692:	48 89 c5             	mov    %rax,%rbp
    5695:	e8 96 cb ff ff       	call   2230 <malloc@plt>
    569a:	48 8b 15 c7 23 03 00 	mov    0x323c7(%rip),%rdx        # 37a68 <_IO_stdin_used+0xa68>
    56a1:	89 68 08             	mov    %ebp,0x8(%rax)
    56a4:	48 c7 40 20 00 00 00 	movq   $0x0,0x20(%rax)
    56ab:	00 
    56ac:	48 89 10             	mov    %rdx,(%rax)
    56af:	49 8b 57 08          	mov    0x8(%r15),%rdx
    56b3:	48 85 d2             	test   %rdx,%rdx
    56b6:	0f 84 c4 fe ff ff    	je     5580 <cliparse+0x8f0>
    56bc:	0f 1f 40 00          	nopl   0x0(%rax)
    56c0:	48 89 d1             	mov    %rdx,%rcx
    56c3:	48 8b 52 20          	mov    0x20(%rdx),%rdx
    56c7:	48 85 d2             	test   %rdx,%rdx
    56ca:	75 f4                	jne    56c0 <cliparse+0xa30>
    56cc:	e9 eb f7 ff ff       	jmp    4ebc <cliparse+0x22c>
    56d1:	66 66 2e 0f 1f 84 00 	data16 cs nopw 0x0(%rax,%rax,1)
    56d8:	00 00 00 00 
    56dc:	0f 1f 40 00          	nopl   0x0(%rax)
    56e0:	48 89 d1             	mov    %rdx,%rcx
    56e3:	48 8b 52 20          	mov    0x20(%rdx),%rdx
    56e7:	48 85 d2             	test   %rdx,%rdx
    56ea:	0f 84 cc f7 ff ff    	je     4ebc <cliparse+0x22c>
    56f0:	48 89 d1             	mov    %rdx,%rcx
    56f3:	48 8b 52 20          	mov    0x20(%rdx),%rdx
    56f7:	48 85 d2             	test   %rdx,%rdx
    56fa:	75 e4                	jne    56e0 <cliparse+0xa50>
    56fc:	e9 bb f7 ff ff       	jmp    4ebc <cliparse+0x22c>
    5701:	66 66 2e 0f 1f 84 00 	data16 cs nopw 0x0(%rax,%rax,1)
    5708:	00 00 00 00 
    570c:	0f 1f 40 00          	nopl   0x0(%rax)
    5710:	41 c6 40 10 01       	movb   $0x1,0x10(%r8)
    5715:	e9 06 f7 ff ff       	jmp    4e20 <cliparse+0x190>
    571a:	66 0f 1f 44 00 00    	nopw   0x0(%rax,%rax,1)
    5720:	49 89 dc             	mov    %rbx,%r12
    5723:	4c 8d 35 91 19 03 00 	lea    0x31991(%rip),%r14        # 370bb <_IO_stdin_used+0xbb>
    572a:	4c 8d 2d 94 19 03 00 	lea    0x31994(%rip),%r13        # 370c5 <_IO_stdin_used+0xc5>
    5731:	48 89 5c 24 08       	mov    %rbx,0x8(%rsp)
    5736:	4c 89 c5             	mov    %r8,%rbp
    5739:	eb 52                	jmp    578d <cliparse+0xafd>
    573b:	0f 1f 44 00 00       	nopl   0x0(%rax,%rax,1)
    5740:	ba 09 00 00 00       	mov    $0x9,%edx
    5745:	4c 89 f6             	mov    %r14,%rsi
    5748:	48 89 df             	mov    %rbx,%rdi
    574b:	e8 10 c9 ff ff       	call   2060 <strncmp@plt>
    5750:	85 c0                	test   %eax,%eax
    5752:	0f 84 98 00 00 00    	je     57f0 <cliparse+0xb60>
    5758:	ba 0f 00 00 00       	mov    $0xf,%edx
    575d:	4c 89 ee             	mov    %r13,%rsi
    5760:	48 89 df             	mov    %rbx,%rdi
    5763:	e8 f8 c8 ff ff       	call   2060 <strncmp@plt>
    5768:	85 c0                	test   %eax,%eax
    576a:	74 44                	je     57b0 <cliparse+0xb20>
    576c:	ba 0f 00 00 00       	mov    $0xf,%edx
    5771:	48 8d 35 5d 19 03 00 	lea    0x3195d(%rip),%rsi        # 370d5 <_IO_stdin_used+0xd5>
    5778:	48 89 df             	mov    %rbx,%rdi
    577b:	e8 e0 c8 ff ff       	call   2060 <strncmp@plt>
    5780:	85 c0                	test   %eax,%eax
    5782:	74 2c                	je     57b0 <cliparse+0xb20>
    5784:	49 83 c4 08          	add    $0x8,%r12
    5788:	4d 39 fc             	cmp    %r15,%r12
    578b:	74 4f                	je     57dc <cliparse+0xb4c>
    578d:	49 8b 1c 24          	mov    (%r12),%rbx
    5791:	ba 0d 00 00 00       	mov    $0xd,%edx
    5796:	48 8d 35 10 19 03 00 	lea    0x31910(%rip),%rsi        # 370ad <_IO_stdin_used+0xad>
    579d:	48 89 df             	mov    %rbx,%rdi
    57a0:	e8 bb c8 ff ff       	call   2060 <strncmp@plt>
    57a5:	85 c0                	test   %eax,%eax
    57a7:	75 97                	jne    5740 <cliparse+0xab0>
    57a9:	c6 45 10 01          	movb   $0x1,0x10(%rbp)
    57ad:	eb 91                	jmp    5740 <cliparse+0xab0>
    57af:	90                   	nop
    57b0:	be 3d 00 00 00       	mov    $0x3d,%esi
    57b5:	48 89 df             	mov    %rbx,%rdi
    57b8:	49 83 c4 08          	add    $0x8,%r12
    57bc:	e8 4f c9 ff ff       	call   2110 <strchr@plt>
    57c1:	ba 0a 00 00 00       	mov    $0xa,%edx
    57c6:	31 f6                	xor    %esi,%esi
    57c8:	48 8d 78 01          	lea    0x1(%rax),%rdi
    57cc:	e8 2f ca ff ff       	call   2200 <strtol@plt>
    57d1:	48 98                	cltq
    57d3:	48 89 45 18          	mov    %rax,0x18(%rbp)
    57d7:	4d 39 fc             	cmp    %r15,%r12
    57da:	75 b1                	jne    578d <cliparse+0xafd>
    57dc:	48 8b 5c 24 08       	mov    0x8(%rsp),%rbx
    57e1:	49 89 e8             	mov    %rbp,%r8
    57e4:	e9 37 f6 ff ff       	jmp    4e20 <cliparse+0x190>
    57e9:	0f 1f 80 00 00 00 00 	nopl   0x0(%rax)
    57f0:	c6 45 11 01          	movb   $0x1,0x11(%rbp)
    57f4:	e9 5f ff ff ff       	jmp    5758 <cliparse+0xac8>
    57f9:	0f 1f 80 00 00 00 00 	nopl   0x0(%rax)
    5800:	80 7d 01 6c          	cmpb   $0x6c,0x1(%rbp)
    5804:	0f 85 a3 fa ff ff    	jne    52ad <cliparse+0x61d>
    580a:	bf 28 00 00 00       	mov    $0x28,%edi
    580f:	e8 1c ca ff ff       	call   2230 <malloc@plt>
    5814:	48 8b 15 6d 22 03 00 	mov    0x3226d(%rip),%rdx        # 37a88 <_IO_stdin_used+0xa88>
    581b:	48 c7 40 20 00 00 00 	movq   $0x0,0x20(%rax)
    5822:	00 
    5823:	48 89 10             	mov    %rdx,(%rax)
    5826:	49 8b 57 08          	mov    0x8(%r15),%rdx
    582a:	48 85 d2             	test   %rdx,%rdx
    582d:	0f 84 4d fd ff ff    	je     5580 <cliparse+0x8f0>
    5833:	66 66 2e 0f 1f 84 00 	data16 cs nopw 0x0(%rax,%rax,1)
    583a:	00 00 00 00 
    583e:	66 90                	xchg   %ax,%ax
    5840:	48 89 d1             	mov    %rdx,%rcx
    5843:	48 8b 52 20          	mov    0x20(%rdx),%rdx
    5847:	48 85 d2             	test   %rdx,%rdx
    584a:	75 f4                	jne    5840 <cliparse+0xbb0>
    584c:	e9 6b f6 ff ff       	jmp    4ebc <cliparse+0x22c>
    5851:	80 7d 01 6e          	cmpb   $0x6e,0x1(%rbp)
    5855:	0f 85 cd fa ff ff    	jne    5328 <cliparse+0x698>
    585b:	bf 28 00 00 00       	mov    $0x28,%edi
    5860:	e8 cb c9 ff ff       	call   2230 <malloc@plt>
    5865:	48 8b 15 3c 22 03 00 	mov    0x3223c(%rip),%rdx        # 37aa8 <_IO_stdin_used+0xaa8>
    586c:	48 c7 40 20 00 00 00 	movq   $0x0,0x20(%rax)
    5873:	00 
    5874:	48 89 10             	mov    %rdx,(%rax)
    5877:	49 8b 57 08          	mov    0x8(%r15),%rdx
    587b:	48 85 d2             	test   %rdx,%rdx
    587e:	0f 84 fc fc ff ff    	je     5580 <cliparse+0x8f0>
    5884:	66 66 2e 0f 1f 84 00 	data16 cs nopw 0x0(%rax,%rax,1)
    588b:	00 00 00 00 
    588f:	90                   	nop
    5890:	48 89 d1             	mov    %rdx,%rcx
    5893:	48 8b 52 20          	mov    0x20(%rdx),%rdx
    5897:	48 85 d2             	test   %rdx,%rdx
    589a:	0f 84 1c f6 ff ff    	je     4ebc <cliparse+0x22c>
    58a0:	48 89 d1             	mov    %rdx,%rcx
    58a3:	48 8b 52 20          	mov    0x20(%rdx),%rdx
    58a7:	48 85 d2             	test   %rdx,%rdx
    58aa:	75 e4                	jne    5890 <cliparse+0xc00>
    58ac:	e9 0b f6 ff ff       	jmp    4ebc <cliparse+0x22c>
    58b1:	ba 07 00 00 00       	mov    $0x7,%edx
    58b6:	48 8d 35 d2 18 03 00 	lea    0x318d2(%rip),%rsi        # 3718f <_IO_stdin_used+0x18f>
    58bd:	48 89 ef             	mov    %rbp,%rdi
    58c0:	e8 9b c7 ff ff       	call   2060 <strncmp@plt>
    58c5:	85 c0                	test   %eax,%eax
    58c7:	0f 84 c1 fa ff ff    	je     538e <cliparse+0x6fe>
    58cd:	41 83 fc 2d          	cmp    $0x2d,%r12d
    58d1:	0f 85 e9 f5 ff ff    	jne    4ec0 <cliparse+0x230>
    58d7:	80 7d 01 6f          	cmpb   $0x6f,0x1(%rbp)
    58db:	0f 85 df f5 ff ff    	jne    4ec0 <cliparse+0x230>
    58e1:	80 7d 02 3d          	cmpb   $0x3d,0x2(%rbp)
    58e5:	0f 85 d5 f5 ff ff    	jne    4ec0 <cliparse+0x230>
    58eb:	48 89 ef             	mov    %rbp,%rdi
    58ee:	be 3d 00 00 00       	mov    $0x3d,%esi
    58f3:	e8 18 c8 ff ff       	call   2110 <strchr@plt>
    58f8:	bf 28 00 00 00       	mov    $0x28,%edi
    58fd:	48 89 c5             	mov    %rax,%rbp
    5900:	e8 2b c9 ff ff       	call   2230 <malloc@plt>
    5905:	48 89 c2             	mov    %rax,%rdx
    5908:	48 8b 05 b1 21 03 00 	mov    0x321b1(%rip),%rax        # 37ac0 <_IO_stdin_used+0xac0>
    590f:	48 ff c5             	inc    %rbp
    5912:	48 89 6a 08          	mov    %rbp,0x8(%rdx)
    5916:	48 c7 42 20 00 00 00 	movq   $0x0,0x20(%rdx)
    591d:	00 
    591e:	48 89 02             	mov    %rax,(%rdx)
    5921:	49 8b 47 08          	mov    0x8(%r15),%rax
    5925:	48 85 c0             	test   %rax,%rax
    5928:	0f 84 82 03 00 00    	je     5cb0 <cliparse+0x1020>
    592e:	48 89 c1             	mov    %rax,%rcx
    5931:	48 8b 40 20          	mov    0x20(%rax),%rax
    5935:	48 85 c0             	test   %rax,%rax
    5938:	75 f4                	jne    592e <cliparse+0xc9e>
    593a:	48 89 51 20          	mov    %rdx,0x20(%rcx)
    593e:	e9 7d f5 ff ff       	jmp    4ec0 <cliparse+0x230>
    5943:	66 66 2e 0f 1f 84 00 	data16 cs nopw 0x0(%rax,%rax,1)
    594a:	00 00 00 00 
    594e:	66 90                	xchg   %ax,%ax
    5950:	48 89 ef             	mov    %rbp,%rdi
    5953:	be 3d 00 00 00       	mov    $0x3d,%esi
    5958:	e8 b3 c7 ff ff       	call   2110 <strchr@plt>
    595d:	ba 0a 00 00 00       	mov    $0xa,%edx
    5962:	31 f6                	xor    %esi,%esi
    5964:	48 8d 78 01          	lea    0x1(%rax),%rdi
    5968:	e8 93 c8 ff ff       	call   2200 <strtol@plt>
    596d:	bf 28 00 00 00       	mov    $0x28,%edi
    5972:	48 89 c5             	mov    %rax,%rbp
    5975:	e8 b6 c8 ff ff       	call   2230 <malloc@plt>
    597a:	48 8b 15 f7 20 03 00 	mov    0x320f7(%rip),%rdx        # 37a78 <_IO_stdin_used+0xa78>
    5981:	89 68 08             	mov    %ebp,0x8(%rax)
    5984:	48 c7 40 20 00 00 00 	movq   $0x0,0x20(%rax)
    598b:	00 
    598c:	48 89 10             	mov    %rdx,(%rax)
    598f:	49 8b 57 08          	mov    0x8(%r15),%rdx
    5993:	48 85 d2             	test   %rdx,%rdx
    5996:	0f 84 e4 fb ff ff    	je     5580 <cliparse+0x8f0>
    599c:	0f 1f 40 00          	nopl   0x0(%rax)
    59a0:	48 89 d1             	mov    %rdx,%rcx
    59a3:	48 8b 52 20          	mov    0x20(%rdx),%rdx
    59a7:	48 85 d2             	test   %rdx,%rdx
    59aa:	75 f4                	jne    59a0 <cliparse+0xd10>
    59ac:	e9 0b f5 ff ff       	jmp    4ebc <cliparse+0x22c>
    59b1:	48 8d 3d ac 16 03 00 	lea    0x316ac(%rip),%rdi        # 37064 <_IO_stdin_used+0x64>
    59b8:	e8 d3 c6 ff ff       	call   2090 <puts@plt>
    59bd:	48 8d 3d ec 17 03 00 	lea    0x317ec(%rip),%rdi        # 371b0 <_IO_stdin_used+0x1b0>
    59c4:	e8 c7 c6 ff ff       	call   2090 <puts@plt>
    59c9:	bf 0a 00 00 00       	mov    $0xa,%edi
    59ce:	e8 6d c6 ff ff       	call   2040 <putchar@plt>
    59d3:	48 8d 3d 96 16 03 00 	lea    0x31696(%rip),%rdi        # 37070 <_IO_stdin_used+0x70>
    59da:	e8 b1 c6 ff ff       	call   2090 <puts@plt>
    59df:	48 8d 3d f2 17 03 00 	lea    0x317f2(%rip),%rdi        # 371d8 <_IO_stdin_used+0x1d8>
    59e6:	e8 a5 c6 ff ff       	call   2090 <puts@plt>
    59eb:	48 8d 3d 1e 18 03 00 	lea    0x3181e(%rip),%rdi        # 37210 <_IO_stdin_used+0x210>
    59f2:	e8 99 c6 ff ff       	call   2090 <puts@plt>
    59f7:	48 8d 3d 4a 18 03 00 	lea    0x3184a(%rip),%rdi        # 37248 <_IO_stdin_used+0x248>
    59fe:	e8 8d c6 ff ff       	call   2090 <puts@plt>
    5a03:	48 8d 3d 7e 18 03 00 	lea    0x3187e(%rip),%rdi        # 37288 <_IO_stdin_used+0x288>
    5a0a:	e8 81 c6 ff ff       	call   2090 <puts@plt>
    5a0f:	48 8d 3d b2 18 03 00 	lea    0x318b2(%rip),%rdi        # 372c8 <_IO_stdin_used+0x2c8>
    5a16:	e8 75 c6 ff ff       	call   2090 <puts@plt>
    5a1b:	48 8d 3d de 18 03 00 	lea    0x318de(%rip),%rdi        # 37300 <_IO_stdin_used+0x300>
    5a22:	e8 69 c6 ff ff       	call   2090 <puts@plt>
    5a27:	bf 0a 00 00 00       	mov    $0xa,%edi
    5a2c:	e8 0f c6 ff ff       	call   2040 <putchar@plt>
    5a31:	48 8d 3d 10 19 03 00 	lea    0x31910(%rip),%rdi        # 37348 <_IO_stdin_used+0x348>
    5a38:	e8 53 c6 ff ff       	call   2090 <puts@plt>
    5a3d:	48 8d 3d 4c 19 03 00 	lea    0x3194c(%rip),%rdi        # 37390 <_IO_stdin_used+0x390>
    5a44:	e8 47 c6 ff ff       	call   2090 <puts@plt>
    5a49:	48 8d 3d 90 19 03 00 	lea    0x31990(%rip),%rdi        # 373e0 <_IO_stdin_used+0x3e0>
    5a50:	e8 3b c6 ff ff       	call   2090 <puts@plt>
    5a55:	bf 0a 00 00 00       	mov    $0xa,%edi
    5a5a:	e8 e1 c5 ff ff       	call   2040 <putchar@plt>
    5a5f:	48 8d 3d ca 19 03 00 	lea    0x319ca(%rip),%rdi        # 37430 <_IO_stdin_used+0x430>
    5a66:	e8 25 c6 ff ff       	call   2090 <puts@plt>
    5a6b:	48 8d 3d 0e 1a 03 00 	lea    0x31a0e(%rip),%rdi        # 37480 <_IO_stdin_used+0x480>
    5a72:	e8 19 c6 ff ff       	call   2090 <puts@plt>
    5a77:	48 8d 3d 62 1a 03 00 	lea    0x31a62(%rip),%rdi        # 374e0 <_IO_stdin_used+0x4e0>
    5a7e:	e8 0d c6 ff ff       	call   2090 <puts@plt>
    5a83:	48 8d 3d b6 1a 03 00 	lea    0x31ab6(%rip),%rdi        # 37540 <_IO_stdin_used+0x540>
    5a8a:	e8 01 c6 ff ff       	call   2090 <puts@plt>
    5a8f:	48 8d 3d 0a 1b 03 00 	lea    0x31b0a(%rip),%rdi        # 375a0 <_IO_stdin_used+0x5a0>
    5a96:	e8 f5 c5 ff ff       	call   2090 <puts@plt>
    5a9b:	bf 0a 00 00 00       	mov    $0xa,%edi
    5aa0:	e8 9b c5 ff ff       	call   2040 <putchar@plt>
    5aa5:	48 8d 3d 54 1b 03 00 	lea    0x31b54(%rip),%rdi        # 37600 <_IO_stdin_used+0x600>
    5aac:	e8 df c5 ff ff       	call   2090 <puts@plt>
    5ab1:	48 8d 3d 90 1b 03 00 	lea    0x31b90(%rip),%rdi        # 37648 <_IO_stdin_used+0x648>
    5ab8:	e8 d3 c5 ff ff       	call   2090 <puts@plt>
    5abd:	bf 0a 00 00 00       	mov    $0xa,%edi
    5ac2:	e8 79 c5 ff ff       	call   2040 <putchar@plt>
    5ac7:	48 8d 3d c2 1b 03 00 	lea    0x31bc2(%rip),%rdi        # 37690 <_IO_stdin_used+0x690>
    5ace:	e8 bd c5 ff ff       	call   2090 <puts@plt>
    5ad3:	48 8d 3d 16 1c 03 00 	lea    0x31c16(%rip),%rdi        # 376f0 <_IO_stdin_used+0x6f0>
    5ada:	e8 b1 c5 ff ff       	call   2090 <puts@plt>
    5adf:	bf 0a 00 00 00       	mov    $0xa,%edi
    5ae4:	e8 57 c5 ff ff       	call   2040 <putchar@plt>
    5ae9:	48 8d 3d 60 1c 03 00 	lea    0x31c60(%rip),%rdi        # 37750 <_IO_stdin_used+0x750>
    5af0:	e8 9b c5 ff ff       	call   2090 <puts@plt>
    5af5:	48 8d 3d 7d 15 03 00 	lea    0x3157d(%rip),%rdi        # 37079 <_IO_stdin_used+0x79>
    5afc:	e8 8f c5 ff ff       	call   2090 <puts@plt>
    5b01:	48 8d 3d a8 1c 03 00 	lea    0x31ca8(%rip),%rdi        # 377b0 <_IO_stdin_used+0x7b0>
    5b08:	e8 83 c5 ff ff       	call   2090 <puts@plt>
    5b0d:	48 8d 3d d4 1c 03 00 	lea    0x31cd4(%rip),%rdi        # 377e8 <_IO_stdin_used+0x7e8>
    5b14:	e8 77 c5 ff ff       	call   2090 <puts@plt>
    5b19:	48 8d 3d 08 1d 03 00 	lea    0x31d08(%rip),%rdi        # 37828 <_IO_stdin_used+0x828>
    5b20:	e8 6b c5 ff ff       	call   2090 <puts@plt>
    5b25:	48 8d 3d 34 1d 03 00 	lea    0x31d34(%rip),%rdi        # 37860 <_IO_stdin_used+0x860>
    5b2c:	e8 5f c5 ff ff       	call   2090 <puts@plt>
    5b31:	48 8d 3d 68 1d 03 00 	lea    0x31d68(%rip),%rdi        # 378a0 <_IO_stdin_used+0x8a0>
    5b38:	e8 53 c5 ff ff       	call   2090 <puts@plt>
    5b3d:	48 8d 3d 94 1d 03 00 	lea    0x31d94(%rip),%rdi        # 378d8 <_IO_stdin_used+0x8d8>
    5b44:	e8 47 c5 ff ff       	call   2090 <puts@plt>
    5b49:	48 8d 3d c0 1d 03 00 	lea    0x31dc0(%rip),%rdi        # 37910 <_IO_stdin_used+0x910>
    5b50:	e8 3b c5 ff ff       	call   2090 <puts@plt>
    5b55:	45 31 c0             	xor    %r8d,%r8d
    5b58:	e9 78 f3 ff ff       	jmp    4ed5 <cliparse+0x245>
    5b5d:	80 7d 02 73          	cmpb   $0x73,0x2(%rbp)
    5b61:	0f 85 ed f7 ff ff    	jne    5354 <cliparse+0x6c4>
    5b67:	bf 28 00 00 00       	mov    $0x28,%edi
    5b6c:	e8 bf c6 ff ff       	call   2230 <malloc@plt>
    5b71:	48 8b 15 38 1f 03 00 	mov    0x31f38(%rip),%rdx        # 37ab0 <_IO_stdin_used+0xab0>
    5b78:	48 c7 40 20 00 00 00 	movq   $0x0,0x20(%rax)
    5b7f:	00 
    5b80:	48 89 10             	mov    %rdx,(%rax)
    5b83:	49 8b 57 08          	mov    0x8(%r15),%rdx
    5b87:	48 85 d2             	test   %rdx,%rdx
    5b8a:	0f 84 f0 f9 ff ff    	je     5580 <cliparse+0x8f0>
    5b90:	48 89 d1             	mov    %rdx,%rcx
    5b93:	48 8b 52 20          	mov    0x20(%rdx),%rdx
    5b97:	48 85 d2             	test   %rdx,%rdx
    5b9a:	75 f4                	jne    5b90 <cliparse+0xf00>
    5b9c:	e9 1b f3 ff ff       	jmp    4ebc <cliparse+0x22c>
    5ba1:	bf 28 00 00 00       	mov    $0x28,%edi
    5ba6:	e8 85 c6 ff ff       	call   2230 <malloc@plt>
    5bab:	48 8b 15 de 1e 03 00 	mov    0x31ede(%rip),%rdx        # 37a90 <_IO_stdin_used+0xa90>
    5bb2:	48 c7 40 20 00 00 00 	movq   $0x0,0x20(%rax)
    5bb9:	00 
    5bba:	48 89 10             	mov    %rdx,(%rax)
    5bbd:	49 8b 57 08          	mov    0x8(%r15),%rdx
    5bc1:	48 85 d2             	test   %rdx,%rdx
    5bc4:	0f 84 b6 f9 ff ff    	je     5580 <cliparse+0x8f0>
    5bca:	66 0f 1f 44 00 00    	nopw   0x0(%rax,%rax,1)
    5bd0:	48 89 d1             	mov    %rdx,%rcx
    5bd3:	48 8b 52 20          	mov    0x20(%rdx),%rdx
    5bd7:	48 85 d2             	test   %rdx,%rdx
    5bda:	75 f4                	jne    5bd0 <cliparse+0xf40>
    5bdc:	e9 db f2 ff ff       	jmp    4ebc <cliparse+0x22c>
    5be1:	48 89 ef             	mov    %rbp,%rdi
    5be4:	be 3d 00 00 00       	mov    $0x3d,%esi
    5be9:	e8 22 c5 ff ff       	call   2110 <strchr@plt>
    5bee:	ba 0a 00 00 00       	mov    $0xa,%edx
    5bf3:	31 f6                	xor    %esi,%esi
    5bf5:	48 8d 78 01          	lea    0x1(%rax),%rdi
    5bf9:	e8 02 c6 ff ff       	call   2200 <strtol@plt>
    5bfe:	bf 28 00 00 00       	mov    $0x28,%edi
    5c03:	48 89 c5             	mov    %rax,%rbp
    5c06:	e8 25 c6 ff ff       	call   2230 <malloc@plt>
    5c0b:	48 89 c1             	mov    %rax,%rcx
    5c0e:	48 8b 05 83 1e 03 00 	mov    0x31e83(%rip),%rax        # 37a98 <_IO_stdin_used+0xa98>
    5c15:	89 69 08             	mov    %ebp,0x8(%rcx)
    5c18:	48 c7 41 20 00 00 00 	movq   $0x0,0x20(%rcx)
    5c1f:	00 
    5c20:	48 89 01             	mov    %rax,(%rcx)
    5c23:	49 8b 47 08          	mov    0x8(%r15),%rax
    5c27:	48 85 c0             	test   %rax,%rax
    5c2a:	74 72                	je     5c9e <cliparse+0x100e>
    5c2c:	0f 1f 40 00          	nopl   0x0(%rax)
    5c30:	48 89 c2             	mov    %rax,%rdx
    5c33:	48 8b 40 20          	mov    0x20(%rax),%rax
    5c37:	48 85 c0             	test   %rax,%rax
    5c3a:	75 f4                	jne    5c30 <cliparse+0xfa0>
    5c3c:	48 89 4a 20          	mov    %rcx,0x20(%rdx)
    5c40:	e9 7b f2 ff ff       	jmp    4ec0 <cliparse+0x230>
    5c45:	48 89 ef             	mov    %rbp,%rdi
    5c48:	be 3d 00 00 00       	mov    $0x3d,%esi
    5c4d:	e8 be c4 ff ff       	call   2110 <strchr@plt>
    5c52:	ba 0a 00 00 00       	mov    $0xa,%edx
    5c57:	31 f6                	xor    %esi,%esi
    5c59:	48 8d 78 01          	lea    0x1(%rax),%rdi
    5c5d:	e8 9e c5 ff ff       	call   2200 <strtol@plt>
    5c62:	bf 28 00 00 00       	mov    $0x28,%edi
    5c67:	48 89 c5             	mov    %rax,%rbp
    5c6a:	e8 c1 c5 ff ff       	call   2230 <malloc@plt>
    5c6f:	48 89 c1             	mov    %rax,%rcx
    5c72:	48 8b 05 27 1e 03 00 	mov    0x31e27(%rip),%rax        # 37aa0 <_IO_stdin_used+0xaa0>
    5c79:	89 69 08             	mov    %ebp,0x8(%rcx)
    5c7c:	48 c7 41 20 00 00 00 	movq   $0x0,0x20(%rcx)
    5c83:	00 
    5c84:	48 89 01             	mov    %rax,(%rcx)
    5c87:	49 8b 47 08          	mov    0x8(%r15),%rax
    5c8b:	48 85 c0             	test   %rax,%rax
    5c8e:	74 0e                	je     5c9e <cliparse+0x100e>
    5c90:	48 89 c2             	mov    %rax,%rdx
    5c93:	48 8b 40 20          	mov    0x20(%rax),%rax
    5c97:	48 85 c0             	test   %rax,%rax
    5c9a:	75 f4                	jne    5c90 <cliparse+0x1000>
    5c9c:	eb 9e                	jmp    5c3c <cliparse+0xfac>
    5c9e:	49 89 4f 08          	mov    %rcx,0x8(%r15)
    5ca2:	e9 19 f2 ff ff       	jmp    4ec0 <cliparse+0x230>
    5ca7:	4d 89 67 08          	mov    %r12,0x8(%r15)
    5cab:	e9 10 f2 ff ff       	jmp    4ec0 <cliparse+0x230>
    5cb0:	49 89 57 08          	mov    %rdx,0x8(%r15)
    5cb4:	e9 07 f2 ff ff       	jmp    4ec0 <cliparse+0x230>
    5cb9:	48 8b 0d 60 95 03 00 	mov    0x39560(%rip),%rcx        # 3f220 <stderr@GLIBC_2.2.5>
    5cc0:	48 8d 3d 29 1d 03 00 	lea    0x31d29(%rip),%rdi        # 379f0 <_IO_stdin_used+0x9f0>
    5cc7:	ba 22 00 00 00       	mov    $0x22,%edx
    5ccc:	be 01 00 00 00       	mov    $0x1,%esi
    5cd1:	e8 0a c6 ff ff       	call   22e0 <fwrite@plt>
    5cd6:	bf 01 00 00 00       	mov    $0x1,%edi
    5cdb:	e8 f0 c5 ff ff       	call   22d0 <exit@plt>
    5ce0:	48 8b 0d 39 95 03 00 	mov    0x39539(%rip),%rcx        # 3f220 <stderr@GLIBC_2.2.5>
    5ce7:	48 8d 3d 2a 1d 03 00 	lea    0x31d2a(%rip),%rdi        # 37a18 <_IO_stdin_used+0xa18>
    5cee:	ba 24 00 00 00       	mov    $0x24,%edx
    5cf3:	be 01 00 00 00       	mov    $0x1,%esi
    5cf8:	e8 e3 c5 ff ff       	call   22e0 <fwrite@plt>
    5cfd:	bf 01 00 00 00       	mov    $0x1,%edi
    5d02:	e8 c9 c5 ff ff       	call   22d0 <exit@plt>
    5d07:	48 8b 0d 12 95 03 00 	mov    0x39512(%rip),%rcx        # 3f220 <stderr@GLIBC_2.2.5>
    5d0e:	48 8d 3d a3 1c 03 00 	lea    0x31ca3(%rip),%rdi        # 379b8 <_IO_stdin_used+0x9b8>
    5d15:	ba 37 00 00 00       	mov    $0x37,%edx
    5d1a:	be 01 00 00 00       	mov    $0x1,%esi
    5d1f:	e8 bc c5 ff ff       	call   22e0 <fwrite@plt>
    5d24:	bf 01 00 00 00       	mov    $0x1,%edi
    5d29:	e8 a2 c5 ff ff       	call   22d0 <exit@plt>
    5d2e:	48 8b 0d eb 94 03 00 	mov    0x394eb(%rip),%rcx        # 3f220 <stderr@GLIBC_2.2.5>
    5d35:	48 8d 3d 2c 1c 03 00 	lea    0x31c2c(%rip),%rdi        # 37968 <_IO_stdin_used+0x968>
    5d3c:	ba 21 00 00 00       	mov    $0x21,%edx
    5d41:	be 01 00 00 00       	mov    $0x1,%esi
    5d46:	e8 95 c5 ff ff       	call   22e0 <fwrite@plt>
    5d4b:	bf 01 00 00 00       	mov    $0x1,%edi
    5d50:	e8 7b c5 ff ff       	call   22d0 <exit@plt>
    5d55:	48 8b 0d c4 94 03 00 	mov    0x394c4(%rip),%rcx        # 3f220 <stderr@GLIBC_2.2.5>
    5d5c:	48 8d 3d 2a 13 03 00 	lea    0x3132a(%rip),%rdi        # 3708d <_IO_stdin_used+0x8d>
    5d63:	ba 11 00 00 00       	mov    $0x11,%edx
    5d68:	be 01 00 00 00       	mov    $0x1,%esi
    5d6d:	e8 6e c5 ff ff       	call   22e0 <fwrite@plt>
    5d72:	bf 01 00 00 00       	mov    $0x1,%edi
    5d77:	e8 54 c5 ff ff       	call   22d0 <exit@plt>
    5d7c:	0f 1f 40 00          	nopl   0x0(%rax)

0000000000005d80 <cliparse_free>:
    5d80:	48 85 ff             	test   %rdi,%rdi
    5d83:	0f 84 a7 00 00 00    	je     5e30 <cliparse_free+0xb0>
    5d89:	41 55                	push   %r13
    5d8b:	41 54                	push   %r12
    5d8d:	49 89 fd             	mov    %rdi,%r13
    5d90:	55                   	push   %rbp
    5d91:	53                   	push   %rbx
    5d92:	48 83 ec 08          	sub    $0x8,%rsp
    5d96:	4c 8b 67 08          	mov    0x8(%rdi),%r12
    5d9a:	49 8b 5c 24 20       	mov    0x20(%r12),%rbx
    5d9f:	48 85 db             	test   %rbx,%rbx
    5da2:	75 23                	jne    5dc7 <cliparse_free+0x47>
    5da4:	eb 5b                	jmp    5e01 <cliparse_free+0x81>
    5da6:	66 2e 0f 1f 84 00 00 	cs nopw 0x0(%rax,%rax,1)
    5dad:	00 00 00 
    5db0:	4c 89 e7             	mov    %r12,%rdi
    5db3:	49 89 dc             	mov    %rbx,%r12
    5db6:	e8 75 c2 ff ff       	call   2030 <free@plt>
    5dbb:	48 8b 43 20          	mov    0x20(%rbx),%rax
    5dbf:	48 85 c0             	test   %rax,%rax
    5dc2:	74 40                	je     5e04 <cliparse_free+0x84>
    5dc4:	48 89 c3             	mov    %rax,%rbx
    5dc7:	83 7b 04 01          	cmpl   $0x1,0x4(%rbx)
    5dcb:	75 e3                	jne    5db0 <cliparse_free+0x30>
    5dcd:	48 83 7b 10 00       	cmpq   $0x0,0x10(%rbx)
    5dd2:	74 22                	je     5df6 <cliparse_free+0x76>
    5dd4:	31 ed                	xor    %ebp,%ebp
    5dd6:	66 2e 0f 1f 84 00 00 	cs nopw 0x0(%rax,%rax,1)
    5ddd:	00 00 00 
    5de0:	48 8b 43 08          	mov    0x8(%rbx),%rax
    5de4:	48 8b 3c e8          	mov    (%rax,%rbp,8),%rdi
    5de8:	48 ff c5             	inc    %rbp
    5deb:	e8 40 c2 ff ff       	call   2030 <free@plt>
    5df0:	48 3b 6b 10          	cmp    0x10(%rbx),%rbp
    5df4:	72 ea                	jb     5de0 <cliparse_free+0x60>
    5df6:	48 8b 7b 08          	mov    0x8(%rbx),%rdi
    5dfa:	e8 31 c2 ff ff       	call   2030 <free@plt>
    5dff:	eb af                	jmp    5db0 <cliparse_free+0x30>
    5e01:	4c 89 e3             	mov    %r12,%rbx
    5e04:	48 89 df             	mov    %rbx,%rdi
    5e07:	e8 24 c2 ff ff       	call   2030 <free@plt>
    5e0c:	49 8b 7d 00          	mov    0x0(%r13),%rdi
    5e10:	e8 5b 0a 03 00       	call   36870 <img_free>
    5e15:	4c 89 ef             	mov    %r13,%rdi
    5e18:	e8 13 c2 ff ff       	call   2030 <free@plt>
    5e1d:	48 83 c4 08          	add    $0x8,%rsp
    5e21:	31 c0                	xor    %eax,%eax
    5e23:	5b                   	pop    %rbx
    5e24:	5d                   	pop    %rbp
    5e25:	41 5c                	pop    %r12
    5e27:	41 5d                	pop    %r13
    5e29:	e9 32 ec ff ff       	jmp    4a60 <kern_free>
    5e2e:	66 90                	xchg   %ax,%ax
    5e30:	c3                   	ret
    5e31:	66 2e 0f 1f 84 00 00 	cs nopw 0x0(%rax,%rax,1)
    5e38:	00 00 00 
    5e3b:	0f 1f 44 00 00       	nopl   0x0(%rax,%rax,1)

0000000000005e40 <resample_row_1>:
    5e40:	48 89 f0             	mov    %rsi,%rax
    5e43:	c3                   	ret
    5e44:	66 66 2e 0f 1f 84 00 	data16 cs nopw 0x0(%rax,%rax,1)
    5e4b:	00 00 00 00 
    5e4f:	90                   	nop

0000000000005e50 <stbi__resample_row_v_2>:
    5e50:	49 89 d0             	mov    %rdx,%r8
    5e53:	89 c8                	mov    %ecx,%eax
    5e55:	85 c9                	test   %ecx,%ecx
    5e57:	0f 8e ab 02 00 00    	jle    6108 <stbi__resample_row_v_2+0x2b8>
    5e5d:	8d 51 ff             	lea    -0x1(%rcx),%edx
    5e60:	41 89 c9             	mov    %ecx,%r9d
    5e63:	83 fa 06             	cmp    $0x6,%edx
    5e66:	0f 86 a4 02 00 00    	jbe    6110 <stbi__resample_row_v_2+0x2c0>
    5e6c:	4c 8d 56 01          	lea    0x1(%rsi),%r10
    5e70:	48 89 f9             	mov    %rdi,%rcx
    5e73:	4c 29 d1             	sub    %r10,%rcx
    5e76:	48 83 f9 0e          	cmp    $0xe,%rcx
    5e7a:	0f 86 90 02 00 00    	jbe    6110 <stbi__resample_row_v_2+0x2c0>
    5e80:	4d 8d 50 01          	lea    0x1(%r8),%r10
    5e84:	48 89 f9             	mov    %rdi,%rcx
    5e87:	4c 29 d1             	sub    %r10,%rcx
    5e8a:	48 83 f9 0e          	cmp    $0xe,%rcx
    5e8e:	0f 86 7c 02 00 00    	jbe    6110 <stbi__resample_row_v_2+0x2c0>
    5e94:	83 fa 0e             	cmp    $0xe,%edx
    5e97:	0f 86 a7 02 00 00    	jbe    6144 <stbi__resample_row_v_2+0x2f4>
    5e9d:	41 b9 03 00 00 00    	mov    $0x3,%r9d
    5ea3:	89 c1                	mov    %eax,%ecx
    5ea5:	31 d2                	xor    %edx,%edx
    5ea7:	c4 c1 79 6e e1       	vmovd  %r9d,%xmm4
    5eac:	41 b9 02 00 00 00    	mov    $0x2,%r9d
    5eb2:	c4 e2 79 78 e4       	vpbroadcastb %xmm4,%xmm4
    5eb7:	c1 e9 04             	shr    $0x4,%ecx
    5eba:	c4 c1 79 6e d9       	vmovd  %r9d,%xmm3
    5ebf:	41 b9 ff 00 00 00    	mov    $0xff,%r9d
    5ec5:	c4 e2 79 30 ec       	vpmovzxbw %xmm4,%xmm5
    5eca:	48 c1 e1 04          	shl    $0x4,%rcx
    5ece:	c5 d9 73 dc 08       	vpsrldq $0x8,%xmm4,%xmm4
    5ed3:	c4 c1 79 6e d1       	vmovd  %r9d,%xmm2
    5ed8:	c4 e2 79 79 db       	vpbroadcastw %xmm3,%xmm3
    5edd:	c4 e2 79 30 e4       	vpmovzxbw %xmm4,%xmm4
    5ee2:	c4 e2 79 79 d2       	vpbroadcastw %xmm2,%xmm2
    5ee7:	66 0f 1f 84 00 00 00 	nopw   0x0(%rax,%rax,1)
    5eee:	00 00 
    5ef0:	c5 fa 6f 04 16       	vmovdqu (%rsi,%rdx,1),%xmm0
    5ef5:	c4 c1 7a 6f 34 10    	vmovdqu (%r8,%rdx,1),%xmm6
    5efb:	c4 e2 79 30 c8       	vpmovzxbw %xmm0,%xmm1
    5f00:	c5 f9 73 d8 08       	vpsrldq $0x8,%xmm0,%xmm0
    5f05:	c4 e2 79 30 c0       	vpmovzxbw %xmm0,%xmm0
    5f0a:	c4 e2 79 30 fe       	vpmovzxbw %xmm6,%xmm7
    5f0f:	c5 f1 d5 cd          	vpmullw %xmm5,%xmm1,%xmm1
    5f13:	c5 c9 73 de 08       	vpsrldq $0x8,%xmm6,%xmm6
    5f18:	c4 e2 79 30 f6       	vpmovzxbw %xmm6,%xmm6
    5f1d:	c5 f9 d5 c4          	vpmullw %xmm4,%xmm0,%xmm0
    5f21:	c5 f1 fd cf          	vpaddw %xmm7,%xmm1,%xmm1
    5f25:	c5 f1 fd cb          	vpaddw %xmm3,%xmm1,%xmm1
    5f29:	c5 f1 71 d1 02       	vpsrlw $0x2,%xmm1,%xmm1
    5f2e:	c5 e9 db c9          	vpand  %xmm1,%xmm2,%xmm1
    5f32:	c5 f9 fd c6          	vpaddw %xmm6,%xmm0,%xmm0
    5f36:	c5 f9 fd c3          	vpaddw %xmm3,%xmm0,%xmm0
    5f3a:	c5 f9 71 d0 02       	vpsrlw $0x2,%xmm0,%xmm0
    5f3f:	c5 e9 db c0          	vpand  %xmm0,%xmm2,%xmm0
    5f43:	c5 f1 67 c0          	vpackuswb %xmm0,%xmm1,%xmm0
    5f47:	c5 fa 7f 04 17       	vmovdqu %xmm0,(%rdi,%rdx,1)
    5f4c:	48 83 c2 10          	add    $0x10,%rdx
    5f50:	48 39 d1             	cmp    %rdx,%rcx
    5f53:	75 9b                	jne    5ef0 <stbi__resample_row_v_2+0xa0>
    5f55:	89 c2                	mov    %eax,%edx
    5f57:	83 e2 f0             	and    $0xfffffff0,%edx
    5f5a:	89 d1                	mov    %edx,%ecx
    5f5c:	39 d0                	cmp    %edx,%eax
    5f5e:	0f 84 a4 01 00 00    	je     6108 <stbi__resample_row_v_2+0x2b8>
    5f64:	41 89 c1             	mov    %eax,%r9d
    5f67:	41 29 d1             	sub    %edx,%r9d
    5f6a:	45 8d 51 ff          	lea    -0x1(%r9),%r10d
    5f6e:	41 83 fa 06          	cmp    $0x6,%r10d
    5f72:	0f 86 8d 00 00 00    	jbe    6005 <stbi__resample_row_v_2+0x1b5>
    5f78:	c5 fa 7e 14 0e       	vmovq  (%rsi,%rcx,1),%xmm2
    5f7d:	c4 c1 7a 7e 04 08    	vmovq  (%r8,%rcx,1),%xmm0
    5f83:	c4 e2 79 30 ea       	vpmovzxbw %xmm2,%xmm5
    5f88:	c4 e2 79 30 c8       	vpmovzxbw %xmm0,%xmm1
    5f8d:	c5 fa 7e 25 5b 47 03 	vmovq  0x3475b(%rip),%xmm4        # 3a6f0 <stbi__bmask+0x330>
    5f94:	00 
    5f95:	c5 e1 71 f5 01       	vpsllw $0x1,%xmm5,%xmm3
    5f9a:	c5 f1 fd cc          	vpaddw %xmm4,%xmm1,%xmm1
    5f9e:	c5 e1 fd dd          	vpaddw %xmm5,%xmm3,%xmm3
    5fa2:	c5 f9 73 d0 20       	vpsrlq $0x20,%xmm0,%xmm0
    5fa7:	c5 e9 73 d2 20       	vpsrlq $0x20,%xmm2,%xmm2
    5fac:	c4 e2 79 30 c0       	vpmovzxbw %xmm0,%xmm0
    5fb1:	c4 e2 79 30 d2       	vpmovzxbw %xmm2,%xmm2
    5fb6:	c5 f9 fd c4          	vpaddw %xmm4,%xmm0,%xmm0
    5fba:	c5 f1 fd cb          	vpaddw %xmm3,%xmm1,%xmm1
    5fbe:	c5 e1 71 f2 01       	vpsllw $0x1,%xmm2,%xmm3
    5fc3:	c5 e1 fd d2          	vpaddw %xmm2,%xmm3,%xmm2
    5fc7:	c5 f9 fd c2          	vpaddw %xmm2,%xmm0,%xmm0
    5fcb:	c5 f1 71 d1 02       	vpsrlw $0x2,%xmm1,%xmm1
    5fd0:	c5 fa 7e 15 20 47 03 	vmovq  0x34720(%rip),%xmm2        # 3a6f8 <stbi__bmask+0x338>
    5fd7:	00 
    5fd8:	c5 e9 db c9          	vpand  %xmm1,%xmm2,%xmm1
    5fdc:	c5 f9 71 d0 02       	vpsrlw $0x2,%xmm0,%xmm0
    5fe1:	c5 e9 db d0          	vpand  %xmm0,%xmm2,%xmm2
    5fe5:	c5 f1 67 ca          	vpackuswb %xmm2,%xmm1,%xmm1
    5fe9:	c5 f9 70 c9 08       	vpshufd $0x8,%xmm1,%xmm1
    5fee:	c5 f9 d6 0c 0f       	vmovq  %xmm1,(%rdi,%rcx,1)
    5ff3:	44 89 c9             	mov    %r9d,%ecx
    5ff6:	83 e1 f8             	and    $0xfffffff8,%ecx
    5ff9:	01 ca                	add    %ecx,%edx
    5ffb:	41 83 e1 07          	and    $0x7,%r9d
    5fff:	0f 84 03 01 00 00    	je     6108 <stbi__resample_row_v_2+0x2b8>
    6005:	48 63 ca             	movslq %edx,%rcx
    6008:	44 0f b6 0c 0e       	movzbl (%rsi,%rcx,1),%r9d
    600d:	47 8d 14 49          	lea    (%r9,%r9,2),%r10d
    6011:	45 0f b6 0c 08       	movzbl (%r8,%rcx,1),%r9d
    6016:	47 8d 4c 0a 02       	lea    0x2(%r10,%r9,1),%r9d
    601b:	41 c1 f9 02          	sar    $0x2,%r9d
    601f:	44 88 0c 0f          	mov    %r9b,(%rdi,%rcx,1)
    6023:	8d 4a 01             	lea    0x1(%rdx),%ecx
    6026:	39 c8                	cmp    %ecx,%eax
    6028:	0f 8e da 00 00 00    	jle    6108 <stbi__resample_row_v_2+0x2b8>
    602e:	48 63 c9             	movslq %ecx,%rcx
    6031:	44 0f b6 0c 0e       	movzbl (%rsi,%rcx,1),%r9d
    6036:	47 8d 14 49          	lea    (%r9,%r9,2),%r10d
    603a:	45 0f b6 0c 08       	movzbl (%r8,%rcx,1),%r9d
    603f:	47 8d 4c 0a 02       	lea    0x2(%r10,%r9,1),%r9d
    6044:	41 c1 f9 02          	sar    $0x2,%r9d
    6048:	44 88 0c 0f          	mov    %r9b,(%rdi,%rcx,1)
    604c:	8d 4a 02             	lea    0x2(%rdx),%ecx
    604f:	39 c8                	cmp    %ecx,%eax
    6051:	0f 8e b1 00 00 00    	jle    6108 <stbi__resample_row_v_2+0x2b8>
    6057:	48 63 c9             	movslq %ecx,%rcx
    605a:	44 0f b6 0c 0e       	movzbl (%rsi,%rcx,1),%r9d
    605f:	47 8d 14 49          	lea    (%r9,%r9,2),%r10d
    6063:	45 0f b6 0c 08       	movzbl (%r8,%rcx,1),%r9d
    6068:	47 8d 4c 0a 02       	lea    0x2(%r10,%r9,1),%r9d
    606d:	41 c1 f9 02          	sar    $0x2,%r9d
    6071:	44 88 0c 0f          	mov    %r9b,(%rdi,%rcx,1)
    6075:	8d 4a 03             	lea    0x3(%rdx),%ecx
    6078:	39 c8                	cmp    %ecx,%eax
    607a:	0f 8e 88 00 00 00    	jle    6108 <stbi__resample_row_v_2+0x2b8>
    6080:	48 63 c9             	movslq %ecx,%rcx
    6083:	44 0f b6 0c 0e       	movzbl (%rsi,%rcx,1),%r9d
    6088:	47 8d 14 49          	lea    (%r9,%r9,2),%r10d
    608c:	45 0f b6 0c 08       	movzbl (%r8,%rcx,1),%r9d
    6091:	47 8d 4c 0a 02       	lea    0x2(%r10,%r9,1),%r9d
    6096:	41 c1 f9 02          	sar    $0x2,%r9d
    609a:	44 88 0c 0f          	mov    %r9b,(%rdi,%rcx,1)
    609e:	8d 4a 04             	lea    0x4(%rdx),%ecx
    60a1:	39 c8                	cmp    %ecx,%eax
    60a3:	7e 63                	jle    6108 <stbi__resample_row_v_2+0x2b8>
    60a5:	48 63 c9             	movslq %ecx,%rcx
    60a8:	44 0f b6 0c 0e       	movzbl (%rsi,%rcx,1),%r9d
    60ad:	47 8d 14 49          	lea    (%r9,%r9,2),%r10d
    60b1:	45 0f b6 0c 08       	movzbl (%r8,%rcx,1),%r9d
    60b6:	47 8d 4c 0a 02       	lea    0x2(%r10,%r9,1),%r9d
    60bb:	41 c1 f9 02          	sar    $0x2,%r9d
    60bf:	44 88 0c 0f          	mov    %r9b,(%rdi,%rcx,1)
    60c3:	8d 4a 05             	lea    0x5(%rdx),%ecx
    60c6:	39 c8                	cmp    %ecx,%eax
    60c8:	7e 3e                	jle    6108 <stbi__resample_row_v_2+0x2b8>
    60ca:	48 63 c9             	movslq %ecx,%rcx
    60cd:	83 c2 06             	add    $0x6,%edx
    60d0:	44 0f b6 0c 0e       	movzbl (%rsi,%rcx,1),%r9d
    60d5:	47 8d 14 49          	lea    (%r9,%r9,2),%r10d
    60d9:	45 0f b6 0c 08       	movzbl (%r8,%rcx,1),%r9d
    60de:	47 8d 4c 0a 02       	lea    0x2(%r10,%r9,1),%r9d
    60e3:	41 c1 f9 02          	sar    $0x2,%r9d
    60e7:	44 88 0c 0f          	mov    %r9b,(%rdi,%rcx,1)
    60eb:	39 d0                	cmp    %edx,%eax
    60ed:	7e 19                	jle    6108 <stbi__resample_row_v_2+0x2b8>
    60ef:	48 63 d2             	movslq %edx,%rdx
    60f2:	0f b6 04 16          	movzbl (%rsi,%rdx,1),%eax
    60f6:	8d 0c 40             	lea    (%rax,%rax,2),%ecx
    60f9:	41 0f b6 04 10       	movzbl (%r8,%rdx,1),%eax
    60fe:	8d 44 01 02          	lea    0x2(%rcx,%rax,1),%eax
    6102:	c1 f8 02             	sar    $0x2,%eax
    6105:	88 04 17             	mov    %al,(%rdi,%rdx,1)
    6108:	48 89 f8             	mov    %rdi,%rax
    610b:	c3                   	ret
    610c:	0f 1f 40 00          	nopl   0x0(%rax)
    6110:	48 63 c8             	movslq %eax,%rcx
    6113:	31 c0                	xor    %eax,%eax
    6115:	66 66 2e 0f 1f 84 00 	data16 cs nopw 0x0(%rax,%rax,1)
    611c:	00 00 00 00 
    6120:	0f b6 14 06          	movzbl (%rsi,%rax,1),%edx
    6124:	44 8d 0c 52          	lea    (%rdx,%rdx,2),%r9d
    6128:	41 0f b6 14 00       	movzbl (%r8,%rax,1),%edx
    612d:	41 8d 54 11 02       	lea    0x2(%r9,%rdx,1),%edx
    6132:	c1 fa 02             	sar    $0x2,%edx
    6135:	88 14 07             	mov    %dl,(%rdi,%rax,1)
    6138:	48 ff c0             	inc    %rax
    613b:	48 39 c1             	cmp    %rax,%rcx
    613e:	75 e0                	jne    6120 <stbi__resample_row_v_2+0x2d0>
    6140:	48 89 f8             	mov    %rdi,%rax
    6143:	c3                   	ret
    6144:	31 c9                	xor    %ecx,%ecx
    6146:	31 d2                	xor    %edx,%edx
    6148:	e9 2b fe ff ff       	jmp    5f78 <stbi__resample_row_v_2+0x128>
    614d:	0f 1f 00             	nopl   (%rax)

0000000000006150 <stbi__resample_row_generic>:
    6150:	49 89 f9             	mov    %rdi,%r9
    6153:	85 c9                	test   %ecx,%ecx
    6155:	0f 8e 03 02 00 00    	jle    635e <stbi__resample_row_generic+0x20e>
    615b:	45 85 c0             	test   %r8d,%r8d
    615e:	0f 8e fa 01 00 00    	jle    635e <stbi__resample_row_generic+0x20e>
    6164:	48 63 c9             	movslq %ecx,%rcx
    6167:	41 57                	push   %r15
    6169:	44 89 c2             	mov    %r8d,%edx
    616c:	41 56                	push   %r14
    616e:	4c 8d 3c 0e          	lea    (%rsi,%rcx,1),%r15
    6172:	44 89 c1             	mov    %r8d,%ecx
    6175:	41 55                	push   %r13
    6177:	48 89 f0             	mov    %rsi,%rax
    617a:	41 54                	push   %r12
    617c:	83 e1 0f             	and    $0xf,%ecx
    617f:	55                   	push   %rbp
    6180:	c1 ea 04             	shr    $0x4,%edx
    6183:	53                   	push   %rbx
    6184:	44 89 c6             	mov    %r8d,%esi
    6187:	49 63 d8             	movslq %r8d,%rbx
    618a:	48 c1 e2 04          	shl    $0x4,%rdx
    618e:	83 e6 f0             	and    $0xfffffff0,%esi
    6191:	4c 8d 34 1f          	lea    (%rdi,%rbx,1),%r14
    6195:	89 4c 24 f0          	mov    %ecx,-0x10(%rsp)
    6199:	ff c9                	dec    %ecx
    619b:	48 89 54 24 e8       	mov    %rdx,-0x18(%rsp)
    61a0:	89 74 24 e4          	mov    %esi,-0x1c(%rsp)
    61a4:	45 8d 68 ff          	lea    -0x1(%r8),%r13d
    61a8:	4c 89 f2             	mov    %r14,%rdx
    61ab:	31 f6                	xor    %esi,%esi
    61ad:	89 4c 24 f4          	mov    %ecx,-0xc(%rsp)
    61b1:	66 66 2e 0f 1f 84 00 	data16 cs nopw 0x0(%rax,%rax,1)
    61b8:	00 00 00 00 
    61bc:	0f 1f 40 00          	nopl   0x0(%rax)
    61c0:	41 83 fd 06          	cmp    $0x6,%r13d
    61c4:	0f 86 76 01 00 00    	jbe    6340 <stbi__resample_row_generic+0x1f0>
    61ca:	49 89 d3             	mov    %rdx,%r11
    61cd:	4c 8d 50 01          	lea    0x1(%rax),%r10
    61d1:	4d 29 f3             	sub    %r14,%r11
    61d4:	4c 39 d7             	cmp    %r10,%rdi
    61d7:	73 47                	jae    6220 <stbi__resample_row_generic+0xd0>
    61d9:	48 8d 0c 3b          	lea    (%rbx,%rdi,1),%rcx
    61dd:	48 39 c8             	cmp    %rcx,%rax
    61e0:	73 3e                	jae    6220 <stbi__resample_row_generic+0xd0>
    61e2:	48 89 f9             	mov    %rdi,%rcx
    61e5:	66 66 2e 0f 1f 84 00 	data16 cs nopw 0x0(%rax,%rax,1)
    61ec:	00 00 00 00 
    61f0:	44 0f b6 18          	movzbl (%rax),%r11d
    61f4:	48 ff c1             	inc    %rcx
    61f7:	44 88 59 ff          	mov    %r11b,-0x1(%rcx)
    61fb:	48 39 d1             	cmp    %rdx,%rcx
    61fe:	75 f0                	jne    61f0 <stbi__resample_row_generic+0xa0>
    6200:	48 01 df             	add    %rbx,%rdi
    6203:	44 01 c6             	add    %r8d,%esi
    6206:	4c 89 d0             	mov    %r10,%rax
    6209:	48 01 da             	add    %rbx,%rdx
    620c:	4d 39 fa             	cmp    %r15,%r10
    620f:	75 af                	jne    61c0 <stbi__resample_row_generic+0x70>
    6211:	5b                   	pop    %rbx
    6212:	4c 89 c8             	mov    %r9,%rax
    6215:	5d                   	pop    %rbp
    6216:	41 5c                	pop    %r12
    6218:	41 5d                	pop    %r13
    621a:	41 5e                	pop    %r14
    621c:	41 5f                	pop    %r15
    621e:	c3                   	ret
    621f:	90                   	nop
    6220:	41 83 fd 0e          	cmp    $0xe,%r13d
    6224:	0f 86 22 01 00 00    	jbe    634c <stbi__resample_row_generic+0x1fc>
    622a:	c4 e2 79 78 00       	vpbroadcastb (%rax),%xmm0
    622f:	48 8b 4c 24 e8       	mov    -0x18(%rsp),%rcx
    6234:	48 8d 2c 39          	lea    (%rcx,%rdi,1),%rbp
    6238:	48 89 f9             	mov    %rdi,%rcx
    623b:	0f 1f 44 00 00       	nopl   0x0(%rax,%rax,1)
    6240:	c5 fa 7f 01          	vmovdqu %xmm0,(%rcx)
    6244:	48 83 c1 10          	add    $0x10,%rcx
    6248:	48 39 e9             	cmp    %rbp,%rcx
    624b:	75 f3                	jne    6240 <stbi__resample_row_generic+0xf0>
    624d:	8b 4c 24 e4          	mov    -0x1c(%rsp),%ecx
    6251:	44 39 c1             	cmp    %r8d,%ecx
    6254:	74 aa                	je     6200 <stbi__resample_row_generic+0xb0>
    6256:	83 7c 24 f4 06       	cmpl   $0x6,-0xc(%rsp)
    625b:	44 8b 64 24 f0       	mov    -0x10(%rsp),%r12d
    6260:	76 35                	jbe    6297 <stbi__resample_row_generic+0x147>
    6262:	89 cd                	mov    %ecx,%ebp
    6264:	89 4c 24 e0          	mov    %ecx,-0x20(%rsp)
    6268:	0f b6 08             	movzbl (%rax),%ecx
    626b:	4d 01 cb             	add    %r9,%r11
    626e:	88 cd                	mov    %cl,%ch
    6270:	c5 f9 6e c9          	vmovd  %ecx,%xmm1
    6274:	c5 fb 70 c1 00       	vpshuflw $0x0,%xmm1,%xmm0
    6279:	44 89 e1             	mov    %r12d,%ecx
    627c:	c4 c1 79 d6 04 2b    	vmovq  %xmm0,(%r11,%rbp,1)
    6282:	44 8b 5c 24 e0       	mov    -0x20(%rsp),%r11d
    6287:	83 e1 f8             	and    $0xfffffff8,%ecx
    628a:	44 01 d9             	add    %r11d,%ecx
    628d:	41 83 e4 07          	and    $0x7,%r12d
    6291:	0f 84 69 ff ff ff    	je     6200 <stbi__resample_row_generic+0xb0>
    6297:	0f b6 28             	movzbl (%rax),%ebp
    629a:	44 8d 1c 0e          	lea    (%rsi,%rcx,1),%r11d
    629e:	4d 63 db             	movslq %r11d,%r11
    62a1:	43 88 2c 19          	mov    %bpl,(%r9,%r11,1)
    62a5:	44 8d 59 01          	lea    0x1(%rcx),%r11d
    62a9:	45 39 d8             	cmp    %r11d,%r8d
    62ac:	0f 8e 4e ff ff ff    	jle    6200 <stbi__resample_row_generic+0xb0>
    62b2:	41 01 f3             	add    %esi,%r11d
    62b5:	4d 63 db             	movslq %r11d,%r11
    62b8:	43 88 2c 19          	mov    %bpl,(%r9,%r11,1)
    62bc:	44 8d 59 02          	lea    0x2(%rcx),%r11d
    62c0:	45 39 d8             	cmp    %r11d,%r8d
    62c3:	0f 8e 37 ff ff ff    	jle    6200 <stbi__resample_row_generic+0xb0>
    62c9:	0f b6 28             	movzbl (%rax),%ebp
    62cc:	41 01 f3             	add    %esi,%r11d
    62cf:	4d 63 db             	movslq %r11d,%r11
    62d2:	43 88 2c 19          	mov    %bpl,(%r9,%r11,1)
    62d6:	44 8d 59 03          	lea    0x3(%rcx),%r11d
    62da:	45 39 d8             	cmp    %r11d,%r8d
    62dd:	0f 8e 1d ff ff ff    	jle    6200 <stbi__resample_row_generic+0xb0>
    62e3:	41 01 f3             	add    %esi,%r11d
    62e6:	4d 63 db             	movslq %r11d,%r11
    62e9:	43 88 2c 19          	mov    %bpl,(%r9,%r11,1)
    62ed:	44 8d 59 04          	lea    0x4(%rcx),%r11d
    62f1:	45 39 d8             	cmp    %r11d,%r8d
    62f4:	0f 8e 06 ff ff ff    	jle    6200 <stbi__resample_row_generic+0xb0>
    62fa:	0f b6 28             	movzbl (%rax),%ebp
    62fd:	41 01 f3             	add    %esi,%r11d
    6300:	4d 63 db             	movslq %r11d,%r11
    6303:	43 88 2c 19          	mov    %bpl,(%r9,%r11,1)
    6307:	44 8d 59 05          	lea    0x5(%rcx),%r11d
    630b:	45 39 d8             	cmp    %r11d,%r8d
    630e:	0f 8e ec fe ff ff    	jle    6200 <stbi__resample_row_generic+0xb0>
    6314:	41 01 f3             	add    %esi,%r11d
    6317:	83 c1 06             	add    $0x6,%ecx
    631a:	4d 63 db             	movslq %r11d,%r11
    631d:	43 88 2c 19          	mov    %bpl,(%r9,%r11,1)
    6321:	41 39 c8             	cmp    %ecx,%r8d
    6324:	0f 8e d6 fe ff ff    	jle    6200 <stbi__resample_row_generic+0xb0>
    632a:	0f b6 00             	movzbl (%rax),%eax
    632d:	01 f1                	add    %esi,%ecx
    632f:	48 63 c9             	movslq %ecx,%rcx
    6332:	41 88 04 09          	mov    %al,(%r9,%rcx,1)
    6336:	e9 c5 fe ff ff       	jmp    6200 <stbi__resample_row_generic+0xb0>
    633b:	0f 1f 44 00 00       	nopl   0x0(%rax,%rax,1)
    6340:	48 89 f9             	mov    %rdi,%rcx
    6343:	4c 8d 50 01          	lea    0x1(%rax),%r10
    6347:	e9 a4 fe ff ff       	jmp    61f0 <stbi__resample_row_generic+0xa0>
    634c:	45 89 c4             	mov    %r8d,%r12d
    634f:	31 ed                	xor    %ebp,%ebp
    6351:	c7 44 24 e0 00 00 00 	movl   $0x0,-0x20(%rsp)
    6358:	00 
    6359:	e9 0a ff ff ff       	jmp    6268 <stbi__resample_row_generic+0x118>
    635e:	4c 89 c8             	mov    %r9,%rax
    6361:	c3                   	ret
    6362:	66 66 2e 0f 1f 84 00 	data16 cs nopw 0x0(%rax,%rax,1)
    6369:	00 00 00 00 
    636d:	0f 1f 00             	nopl   (%rax)

0000000000006370 <stbi__out_gif_code>:
    6370:	55                   	push   %rbp
    6371:	0f b7 ee             	movzwl %si,%ebp
    6374:	53                   	push   %rbx
    6375:	48 89 fb             	mov    %rdi,%rbx
    6378:	48 83 ec 08          	sub    $0x8,%rsp
    637c:	0f bf b4 af 34 08 00 	movswl 0x834(%rdi,%rbp,4),%esi
    6383:	00 
    6384:	66 85 f6             	test   %si,%si
    6387:	78 05                	js     638e <stbi__out_gif_code+0x1e>
    6389:	e8 e2 ff ff ff       	call   6370 <stbi__out_gif_code>
    638e:	8b 93 60 88 00 00    	mov    0x8860(%rbx),%edx
    6394:	3b 93 58 88 00 00    	cmp    0x8858(%rbx),%edx
    639a:	0f 8d e5 00 00 00    	jge    6485 <stbi__out_gif_code+0x115>
    63a0:	03 93 5c 88 00 00    	add    0x885c(%rbx),%edx
    63a6:	48 8b 73 18          	mov    0x18(%rbx),%rsi
    63aa:	48 8b 4b 08          	mov    0x8(%rbx),%rcx
    63ae:	8d 42 03             	lea    0x3(%rdx),%eax
    63b1:	0f 49 c2             	cmovns %edx,%eax
    63b4:	c1 f8 02             	sar    $0x2,%eax
    63b7:	48 98                	cltq
    63b9:	c6 04 06 01          	movb   $0x1,(%rsi,%rax,1)
    63bd:	0f b6 84 ab 37 08 00 	movzbl 0x837(%rbx,%rbp,4),%eax
    63c4:	00 
    63c5:	c1 e0 02             	shl    $0x2,%eax
    63c8:	48 98                	cltq
    63ca:	48 03 83 38 88 00 00 	add    0x8838(%rbx),%rax
    63d1:	80 78 03 80          	cmpb   $0x80,0x3(%rax)
    63d5:	76 20                	jbe    63f7 <stbi__out_gif_code+0x87>
    63d7:	48 63 d2             	movslq %edx,%rdx
    63da:	48 01 ca             	add    %rcx,%rdx
    63dd:	0f b6 48 02          	movzbl 0x2(%rax),%ecx
    63e1:	88 0a                	mov    %cl,(%rdx)
    63e3:	0f b6 48 01          	movzbl 0x1(%rax),%ecx
    63e7:	88 4a 01             	mov    %cl,0x1(%rdx)
    63ea:	0f b6 08             	movzbl (%rax),%ecx
    63ed:	88 4a 02             	mov    %cl,0x2(%rdx)
    63f0:	0f b6 40 03          	movzbl 0x3(%rax),%eax
    63f4:	88 42 03             	mov    %al,0x3(%rdx)
    63f7:	8b 83 5c 88 00 00    	mov    0x885c(%rbx),%eax
    63fd:	83 c0 04             	add    $0x4,%eax
    6400:	89 83 5c 88 00 00    	mov    %eax,0x885c(%rbx)
    6406:	3b 83 54 88 00 00    	cmp    0x8854(%rbx),%eax
    640c:	7c 77                	jl     6485 <stbi__out_gif_code+0x115>
    640e:	8b 83 44 88 00 00    	mov    0x8844(%rbx),%eax
    6414:	c5 f9 6e 93 4c 88 00 	vmovd  0x884c(%rbx),%xmm2
    641b:	00 
    641c:	03 83 60 88 00 00    	add    0x8860(%rbx),%eax
    6422:	8b b3 58 88 00 00    	mov    0x8858(%rbx),%esi
    6428:	c4 e3 69 22 c0 01    	vpinsrd $0x1,%eax,%xmm2,%xmm0
    642e:	c5 f9 d6 83 5c 88 00 	vmovq  %xmm0,0x885c(%rbx)
    6435:	00 
    6436:	39 f0                	cmp    %esi,%eax
    6438:	7c 4b                	jl     6485 <stbi__out_gif_code+0x115>
    643a:	8b 93 40 88 00 00    	mov    0x8840(%rbx),%edx
    6440:	eb 3f                	jmp    6481 <stbi__out_gif_code+0x111>
    6442:	66 66 2e 0f 1f 84 00 	data16 cs nopw 0x0(%rax,%rax,1)
    6449:	00 00 00 00 
    644d:	0f 1f 00             	nopl   (%rax)
    6450:	c4 e2 69 f7 83 64 88 	shlx   %edx,0x8864(%rbx),%eax
    6457:	00 00 
    6459:	89 c1                	mov    %eax,%ecx
    645b:	ff ca                	dec    %edx
    645d:	d1 f9                	sar    %ecx
    645f:	03 8b 50 88 00 00    	add    0x8850(%rbx),%ecx
    6465:	c5 f9 6e ca          	vmovd  %edx,%xmm1
    6469:	c4 e3 71 22 c0 01    	vpinsrd $0x1,%eax,%xmm1,%xmm0
    646f:	c5 f9 d6 83 40 88 00 	vmovq  %xmm0,0x8840(%rbx)
    6476:	00 
    6477:	89 8b 60 88 00 00    	mov    %ecx,0x8860(%rbx)
    647d:	39 f1                	cmp    %esi,%ecx
    647f:	7c 04                	jl     6485 <stbi__out_gif_code+0x115>
    6481:	85 d2                	test   %edx,%edx
    6483:	7f cb                	jg     6450 <stbi__out_gif_code+0xe0>
    6485:	48 83 c4 08          	add    $0x8,%rsp
    6489:	5b                   	pop    %rbx
    648a:	5d                   	pop    %rbp
    648b:	c3                   	ret
    648c:	0f 1f 40 00          	nopl   0x0(%rax)

0000000000006490 <stbiw__jpg_DCT>:
    6490:	48 89 f8             	mov    %rdi,%rax
    6493:	4c 8b 54 24 10       	mov    0x10(%rsp),%r10
    6498:	48 8b 7c 24 08       	mov    0x8(%rsp),%rdi
    649d:	c4 41 7a 10 01       	vmovss (%r9),%xmm8
    64a2:	c5 fa 10 20          	vmovss (%rax),%xmm4
    64a6:	c5 fa 10 16          	vmovss (%rsi),%xmm2
    64aa:	c5 fa 10 02          	vmovss (%rdx),%xmm0
    64ae:	c4 c1 7a 10 38       	vmovss (%r8),%xmm7
    64b3:	c5 fa 10 09          	vmovss (%rcx),%xmm1
    64b7:	c5 fa 10 37          	vmovss (%rdi),%xmm6
    64bb:	c4 c1 7a 10 1a       	vmovss (%r10),%xmm3
    64c0:	c5 7a 10 15 b0 42 03 	vmovss 0x342b0(%rip),%xmm10        # 3a778 <stbi__bmask+0x3b8>
    64c7:	00 
    64c8:	c5 da 58 eb          	vaddss %xmm3,%xmm4,%xmm5
    64cc:	c5 da 5c e3          	vsubss %xmm3,%xmm4,%xmm4
    64d0:	c5 ea 58 de          	vaddss %xmm6,%xmm2,%xmm3
    64d4:	c5 ea 5c d6          	vsubss %xmm6,%xmm2,%xmm2
    64d8:	c4 c1 7a 58 f0       	vaddss %xmm8,%xmm0,%xmm6
    64dd:	c4 c1 7a 5c c0       	vsubss %xmm8,%xmm0,%xmm0
    64e2:	c5 72 58 c7          	vaddss %xmm7,%xmm1,%xmm8
    64e6:	c5 f2 5c cf          	vsubss %xmm7,%xmm1,%xmm1
    64ea:	c5 62 58 ce          	vaddss %xmm6,%xmm3,%xmm9
    64ee:	c5 e2 5c de          	vsubss %xmm6,%xmm3,%xmm3
    64f2:	c5 fa 10 35 76 42 03 	vmovss 0x34276(%rip),%xmm6        # 3a770 <stbi__bmask+0x3b0>
    64f9:	00 
    64fa:	c4 c1 52 58 f8       	vaddss %xmm8,%xmm5,%xmm7
    64ff:	c4 c1 52 5c e8       	vsubss %xmm8,%xmm5,%xmm5
    6504:	c5 fa 58 c9          	vaddss %xmm1,%xmm0,%xmm1
    6508:	c5 ea 58 c0          	vaddss %xmm0,%xmm2,%xmm0
